
CustomProjectV.3.elf:     file format elf32-avr

Sections:
Idx Name          Size      VMA       LMA       File off  Algn
  0 .data         0000042e  00800100  000021f8  0000228c  2**0
                  CONTENTS, ALLOC, LOAD, DATA
  1 .text         000021f8  00000000  00000000  00000094  2**1
                  CONTENTS, ALLOC, LOAD, READONLY, CODE
  2 .bss          000000a2  0080052e  0080052e  000026ba  2**0
                  ALLOC
  3 .comment      00000030  00000000  00000000  000026ba  2**0
                  CONTENTS, READONLY
  4 .note.gnu.avr.deviceinfo 00000040  00000000  00000000  000026ec  2**2
                  CONTENTS, READONLY
  5 .debug_aranges 00000128  00000000  00000000  0000272c  2**0
                  CONTENTS, READONLY, DEBUGGING
  6 .debug_info   00002375  00000000  00000000  00002854  2**0
                  CONTENTS, READONLY, DEBUGGING
  7 .debug_abbrev 00000acc  00000000  00000000  00004bc9  2**0
                  CONTENTS, READONLY, DEBUGGING
  8 .debug_line   0000197d  00000000  00000000  00005695  2**0
                  CONTENTS, READONLY, DEBUGGING
  9 .debug_frame  000002f4  00000000  00000000  00007014  2**2
                  CONTENTS, READONLY, DEBUGGING
 10 .debug_str    000009db  00000000  00000000  00007308  2**0
                  CONTENTS, READONLY, DEBUGGING
 11 .debug_loc    000009ab  00000000  00000000  00007ce3  2**0
                  CONTENTS, READONLY, DEBUGGING
 12 .debug_ranges 00000118  00000000  00000000  0000868e  2**0
                  CONTENTS, READONLY, DEBUGGING

Disassembly of section .text:

00000000 <__vectors>:
       0:	45 c0       	rjmp	.+138    	; 0x8c <__ctors_end>
       2:	00 00       	nop
       4:	62 c0       	rjmp	.+196    	; 0xca <__bad_interrupt>
       6:	00 00       	nop
       8:	60 c0       	rjmp	.+192    	; 0xca <__bad_interrupt>
       a:	00 00       	nop
       c:	5e c0       	rjmp	.+188    	; 0xca <__bad_interrupt>
       e:	00 00       	nop
      10:	5c c0       	rjmp	.+184    	; 0xca <__bad_interrupt>
      12:	00 00       	nop
      14:	5a c0       	rjmp	.+180    	; 0xca <__bad_interrupt>
      16:	00 00       	nop
      18:	58 c0       	rjmp	.+176    	; 0xca <__bad_interrupt>
      1a:	00 00       	nop
      1c:	56 c0       	rjmp	.+172    	; 0xca <__bad_interrupt>
      1e:	00 00       	nop
      20:	54 c0       	rjmp	.+168    	; 0xca <__bad_interrupt>
      22:	00 00       	nop
      24:	52 c0       	rjmp	.+164    	; 0xca <__bad_interrupt>
      26:	00 00       	nop
      28:	50 c0       	rjmp	.+160    	; 0xca <__bad_interrupt>
      2a:	00 00       	nop
      2c:	4e c0       	rjmp	.+156    	; 0xca <__bad_interrupt>
      2e:	00 00       	nop
      30:	4c c0       	rjmp	.+152    	; 0xca <__bad_interrupt>
      32:	00 00       	nop
      34:	38 c1       	rjmp	.+624    	; 0x2a6 <__vector_13>
      36:	00 00       	nop
      38:	48 c0       	rjmp	.+144    	; 0xca <__bad_interrupt>
      3a:	00 00       	nop
      3c:	46 c0       	rjmp	.+140    	; 0xca <__bad_interrupt>
      3e:	00 00       	nop
      40:	44 c0       	rjmp	.+136    	; 0xca <__bad_interrupt>
      42:	00 00       	nop
      44:	42 c0       	rjmp	.+132    	; 0xca <__bad_interrupt>
      46:	00 00       	nop
      48:	40 c0       	rjmp	.+128    	; 0xca <__bad_interrupt>
      4a:	00 00       	nop
      4c:	3e c0       	rjmp	.+124    	; 0xca <__bad_interrupt>
      4e:	00 00       	nop
      50:	3c c0       	rjmp	.+120    	; 0xca <__bad_interrupt>
      52:	00 00       	nop
      54:	3a c0       	rjmp	.+116    	; 0xca <__bad_interrupt>
      56:	00 00       	nop
      58:	38 c0       	rjmp	.+112    	; 0xca <__bad_interrupt>
      5a:	00 00       	nop
      5c:	36 c0       	rjmp	.+108    	; 0xca <__bad_interrupt>
      5e:	00 00       	nop
      60:	34 c0       	rjmp	.+104    	; 0xca <__bad_interrupt>
      62:	00 00       	nop
      64:	32 c0       	rjmp	.+100    	; 0xca <__bad_interrupt>
      66:	00 00       	nop
      68:	30 c0       	rjmp	.+96     	; 0xca <__bad_interrupt>
      6a:	00 00       	nop
      6c:	2e c0       	rjmp	.+92     	; 0xca <__bad_interrupt>
      6e:	00 00       	nop
      70:	2c c0       	rjmp	.+88     	; 0xca <__bad_interrupt>
      72:	00 00       	nop
      74:	2a c0       	rjmp	.+84     	; 0xca <__bad_interrupt>
      76:	00 00       	nop
      78:	28 c0       	rjmp	.+80     	; 0xca <__bad_interrupt>
      7a:	00 00       	nop
      7c:	26 c0       	rjmp	.+76     	; 0xca <__bad_interrupt>
      7e:	00 00       	nop
      80:	24 c0       	rjmp	.+72     	; 0xca <__bad_interrupt>
      82:	00 00       	nop
      84:	22 c0       	rjmp	.+68     	; 0xca <__bad_interrupt>
      86:	00 00       	nop
      88:	20 c0       	rjmp	.+64     	; 0xca <__bad_interrupt>
	...

0000008c <__ctors_end>:
      8c:	11 24       	eor	r1, r1
      8e:	1f be       	out	0x3f, r1	; 63
      90:	cf ef       	ldi	r28, 0xFF	; 255
      92:	d0 e4       	ldi	r29, 0x40	; 64
      94:	de bf       	out	0x3e, r29	; 62
      96:	cd bf       	out	0x3d, r28	; 61

00000098 <__do_copy_data>:
      98:	15 e0       	ldi	r17, 0x05	; 5
      9a:	a0 e0       	ldi	r26, 0x00	; 0
      9c:	b1 e0       	ldi	r27, 0x01	; 1
      9e:	e8 ef       	ldi	r30, 0xF8	; 248
      a0:	f1 e2       	ldi	r31, 0x21	; 33
      a2:	00 e0       	ldi	r16, 0x00	; 0
      a4:	0b bf       	out	0x3b, r16	; 59
      a6:	02 c0       	rjmp	.+4      	; 0xac <__do_copy_data+0x14>
      a8:	07 90       	elpm	r0, Z+
      aa:	0d 92       	st	X+, r0
      ac:	ae 32       	cpi	r26, 0x2E	; 46
      ae:	b1 07       	cpc	r27, r17
      b0:	d9 f7       	brne	.-10     	; 0xa8 <__do_copy_data+0x10>

000000b2 <__do_clear_bss>:
      b2:	25 e0       	ldi	r18, 0x05	; 5
      b4:	ae e2       	ldi	r26, 0x2E	; 46
      b6:	b5 e0       	ldi	r27, 0x05	; 5
      b8:	01 c0       	rjmp	.+2      	; 0xbc <.do_clear_bss_start>

000000ba <.do_clear_bss_loop>:
      ba:	1d 92       	st	X+, r1

000000bc <.do_clear_bss_start>:
      bc:	a0 3d       	cpi	r26, 0xD0	; 208
      be:	b2 07       	cpc	r27, r18
      c0:	e1 f7       	brne	.-8      	; 0xba <.do_clear_bss_loop>
      c2:	0e 94 df 0e 	call	0x1dbe	; 0x1dbe <main>
      c6:	0c 94 fa 10 	jmp	0x21f4	; 0x21f4 <_exit>

000000ca <__bad_interrupt>:
      ca:	9a cf       	rjmp	.-204    	; 0x0 <__vectors>

000000cc <R_tick>:
//Parameter: Takes in a uChar for a PINx and the pin number
//Returns: The value of the PINx
unsigned char GetBit(unsigned char port, unsigned char number) 
{
	return ( port & (0x01 << number) );
}
      cc:	02 97       	sbiw	r24, 0x02	; 2
      ce:	08 f0       	brcs	.+2      	; 0xd2 <R_tick+0x6>
      d0:	98 c0       	rjmp	.+304    	; 0x202 <R_tick+0x136>
      d2:	80 91 95 05 	lds	r24, 0x0595	; 0x800595 <toggle>
      d6:	81 11       	cpse	r24, r1
      d8:	07 c0       	rjmp	.+14     	; 0xe8 <R_tick+0x1c>
      da:	81 e0       	ldi	r24, 0x01	; 1
      dc:	80 93 95 05 	sts	0x0595, r24	; 0x800595 <toggle>
      e0:	85 e0       	ldi	r24, 0x05	; 5
      e2:	80 93 7c 00 	sts	0x007C, r24	; 0x80007c <__TEXT_REGION_LENGTH__+0x7e007c>
      e6:	05 c0       	rjmp	.+10     	; 0xf2 <R_tick+0x26>
      e8:	10 92 95 05 	sts	0x0595, r1	; 0x800595 <toggle>
      ec:	86 e0       	ldi	r24, 0x06	; 6
      ee:	80 93 7c 00 	sts	0x007C, r24	; 0x80007c <__TEXT_REGION_LENGTH__+0x7e007c>
      f2:	80 91 78 00 	lds	r24, 0x0078	; 0x800078 <__TEXT_REGION_LENGTH__+0x7e0078>
      f6:	90 91 79 00 	lds	r25, 0x0079	; 0x800079 <__TEXT_REGION_LENGTH__+0x7e0079>
      fa:	90 93 98 05 	sts	0x0598, r25	; 0x800598 <rV+0x1>
      fe:	80 93 97 05 	sts	0x0597, r24	; 0x800597 <rV>
     102:	80 93 96 05 	sts	0x0596, r24	; 0x800596 <tmpA>
     106:	99 27       	eor	r25, r25
     108:	20 91 93 05 	lds	r18, 0x0593	; 0x800593 <MAX>
     10c:	30 91 94 05 	lds	r19, 0x0594	; 0x800594 <MAX+0x1>
     110:	82 17       	cp	r24, r18
     112:	93 07       	cpc	r25, r19
     114:	dc f4       	brge	.+54     	; 0x14c <R_tick+0x80>
     116:	80 91 95 05 	lds	r24, 0x0595	; 0x800595 <toggle>
     11a:	81 30       	cpi	r24, 0x01	; 1
     11c:	c1 f5       	brne	.+112    	; 0x18e <R_tick+0xc2>
     11e:	80 91 90 05 	lds	r24, 0x0590	; 0x800590 <left>
     122:	81 11       	cpse	r24, r1
     124:	07 c0       	rjmp	.+14     	; 0x134 <R_tick+0x68>
     126:	80 91 8f 05 	lds	r24, 0x058F	; 0x80058f <right>
     12a:	81 11       	cpse	r24, r1
     12c:	03 c0       	rjmp	.+6      	; 0x134 <R_tick+0x68>
     12e:	81 e0       	ldi	r24, 0x01	; 1
     130:	80 93 8d 05 	sts	0x058D, r24	; 0x80058d <toRight>
     134:	81 e0       	ldi	r24, 0x01	; 1
     136:	80 93 90 05 	sts	0x0590, r24	; 0x800590 <left>
     13a:	80 91 c3 05 	lds	r24, 0x05C3	; 0x8005c3 <val>
     13e:	81 70       	andi	r24, 0x01	; 1
     140:	8e 5f       	subi	r24, 0xFE	; 254
     142:	80 93 c3 05 	sts	0x05C3, r24	; 0x8005c3 <val>
     146:	81 e0       	ldi	r24, 0x01	; 1
     148:	90 e0       	ldi	r25, 0x00	; 0
     14a:	08 95       	ret
     14c:	80 91 95 05 	lds	r24, 0x0595	; 0x800595 <toggle>
     150:	81 30       	cpi	r24, 0x01	; 1
     152:	b1 f5       	brne	.+108    	; 0x1c0 <R_tick+0xf4>
     154:	80 91 90 05 	lds	r24, 0x0590	; 0x800590 <left>
     158:	81 30       	cpi	r24, 0x01	; 1
     15a:	79 f4       	brne	.+30     	; 0x17a <R_tick+0xae>
     15c:	80 91 8e 05 	lds	r24, 0x058E	; 0x80058e <toLeft>
     160:	81 30       	cpi	r24, 0x01	; 1
     162:	59 f4       	brne	.+22     	; 0x17a <R_tick+0xae>
     164:	10 92 8e 05 	sts	0x058E, r1	; 0x80058e <toLeft>
     168:	80 91 91 05 	lds	r24, 0x0591	; 0x800591 <rotPos>
     16c:	90 91 92 05 	lds	r25, 0x0592	; 0x800592 <rotPos+0x1>
     170:	01 96       	adiw	r24, 0x01	; 1
     172:	90 93 92 05 	sts	0x0592, r25	; 0x800592 <rotPos+0x1>
     176:	80 93 91 05 	sts	0x0591, r24	; 0x800591 <rotPos>
     17a:	10 92 90 05 	sts	0x0590, r1	; 0x800590 <left>
     17e:	80 91 c3 05 	lds	r24, 0x05C3	; 0x8005c3 <val>
     182:	81 70       	andi	r24, 0x01	; 1
     184:	80 93 c3 05 	sts	0x05C3, r24	; 0x8005c3 <val>
     188:	81 e0       	ldi	r24, 0x01	; 1
     18a:	90 e0       	ldi	r25, 0x00	; 0
     18c:	08 95       	ret
     18e:	81 11       	cpse	r24, r1
     190:	3b c0       	rjmp	.+118    	; 0x208 <R_tick+0x13c>
     192:	80 91 90 05 	lds	r24, 0x0590	; 0x800590 <left>
     196:	81 11       	cpse	r24, r1
     198:	07 c0       	rjmp	.+14     	; 0x1a8 <R_tick+0xdc>
     19a:	80 91 8f 05 	lds	r24, 0x058F	; 0x80058f <right>
     19e:	81 11       	cpse	r24, r1
     1a0:	03 c0       	rjmp	.+6      	; 0x1a8 <R_tick+0xdc>
     1a2:	81 e0       	ldi	r24, 0x01	; 1
     1a4:	80 93 8e 05 	sts	0x058E, r24	; 0x80058e <toLeft>
     1a8:	81 e0       	ldi	r24, 0x01	; 1
     1aa:	80 93 8f 05 	sts	0x058F, r24	; 0x80058f <right>
     1ae:	80 91 c3 05 	lds	r24, 0x05C3	; 0x8005c3 <val>
     1b2:	82 70       	andi	r24, 0x02	; 2
     1b4:	8f 5f       	subi	r24, 0xFF	; 255
     1b6:	80 93 c3 05 	sts	0x05C3, r24	; 0x8005c3 <val>
     1ba:	81 e0       	ldi	r24, 0x01	; 1
     1bc:	90 e0       	ldi	r25, 0x00	; 0
     1be:	08 95       	ret
     1c0:	80 91 95 05 	lds	r24, 0x0595	; 0x800595 <toggle>
     1c4:	81 11       	cpse	r24, r1
     1c6:	23 c0       	rjmp	.+70     	; 0x20e <R_tick+0x142>
     1c8:	80 91 8f 05 	lds	r24, 0x058F	; 0x80058f <right>
     1cc:	81 30       	cpi	r24, 0x01	; 1
     1ce:	79 f4       	brne	.+30     	; 0x1ee <R_tick+0x122>
     1d0:	80 91 8d 05 	lds	r24, 0x058D	; 0x80058d <toRight>
     1d4:	81 30       	cpi	r24, 0x01	; 1
     1d6:	59 f4       	brne	.+22     	; 0x1ee <R_tick+0x122>
     1d8:	10 92 8d 05 	sts	0x058D, r1	; 0x80058d <toRight>
     1dc:	80 91 91 05 	lds	r24, 0x0591	; 0x800591 <rotPos>
     1e0:	90 91 92 05 	lds	r25, 0x0592	; 0x800592 <rotPos+0x1>
     1e4:	01 97       	sbiw	r24, 0x01	; 1
     1e6:	90 93 92 05 	sts	0x0592, r25	; 0x800592 <rotPos+0x1>
     1ea:	80 93 91 05 	sts	0x0591, r24	; 0x800591 <rotPos>
     1ee:	10 92 8f 05 	sts	0x058F, r1	; 0x80058f <right>
     1f2:	80 91 c3 05 	lds	r24, 0x05C3	; 0x8005c3 <val>
     1f6:	82 70       	andi	r24, 0x02	; 2
     1f8:	80 93 c3 05 	sts	0x05C3, r24	; 0x8005c3 <val>
     1fc:	81 e0       	ldi	r24, 0x01	; 1
     1fe:	90 e0       	ldi	r25, 0x00	; 0
     200:	08 95       	ret
     202:	80 e0       	ldi	r24, 0x00	; 0
     204:	90 e0       	ldi	r25, 0x00	; 0
     206:	08 95       	ret
     208:	81 e0       	ldi	r24, 0x01	; 1
     20a:	90 e0       	ldi	r25, 0x00	; 0
     20c:	08 95       	ret
     20e:	81 e0       	ldi	r24, 0x01	; 1
     210:	90 e0       	ldi	r25, 0x00	; 0
     212:	08 95       	ret

00000214 <W_tick>:
     214:	02 97       	sbiw	r24, 0x02	; 2
     216:	78 f4       	brcc	.+30     	; 0x236 <W_tick+0x22>
     218:	84 e0       	ldi	r24, 0x04	; 4
     21a:	80 93 7c 00 	sts	0x007C, r24	; 0x80007c <__TEXT_REGION_LENGTH__+0x7e007c>
     21e:	80 91 78 00 	lds	r24, 0x0078	; 0x800078 <__TEXT_REGION_LENGTH__+0x7e0078>
     222:	90 91 79 00 	lds	r25, 0x0079	; 0x800079 <__TEXT_REGION_LENGTH__+0x7e0079>
     226:	99 27       	eor	r25, r25
     228:	90 93 a2 05 	sts	0x05A2, r25	; 0x8005a2 <currW+0x1>
     22c:	80 93 a1 05 	sts	0x05A1, r24	; 0x8005a1 <currW>
     230:	81 e0       	ldi	r24, 0x01	; 1
     232:	90 e0       	ldi	r25, 0x00	; 0
     234:	08 95       	ret
     236:	80 e0       	ldi	r24, 0x00	; 0
     238:	90 e0       	ldi	r25, 0x00	; 0
     23a:	08 95       	ret

0000023c <TimerSet>:
     23c:	60 93 6d 01 	sts	0x016D, r22	; 0x80016d <_avr_timer_M>
     240:	70 93 6e 01 	sts	0x016E, r23	; 0x80016e <_avr_timer_M+0x1>
     244:	80 93 6f 01 	sts	0x016F, r24	; 0x80016f <_avr_timer_M+0x2>
     248:	90 93 70 01 	sts	0x0170, r25	; 0x800170 <_avr_timer_M+0x3>
     24c:	60 93 b1 05 	sts	0x05B1, r22	; 0x8005b1 <_avr_timer_cntcurr>
     250:	70 93 b2 05 	sts	0x05B2, r23	; 0x8005b2 <_avr_timer_cntcurr+0x1>
     254:	80 93 b3 05 	sts	0x05B3, r24	; 0x8005b3 <_avr_timer_cntcurr+0x2>
     258:	90 93 b4 05 	sts	0x05B4, r25	; 0x8005b4 <_avr_timer_cntcurr+0x3>
     25c:	08 95       	ret

0000025e <TimerOn>:
     25e:	8b e0       	ldi	r24, 0x0B	; 11
     260:	80 93 81 00 	sts	0x0081, r24	; 0x800081 <__TEXT_REGION_LENGTH__+0x7e0081>
     264:	8d e7       	ldi	r24, 0x7D	; 125
     266:	90 e0       	ldi	r25, 0x00	; 0
     268:	90 93 89 00 	sts	0x0089, r25	; 0x800089 <__TEXT_REGION_LENGTH__+0x7e0089>
     26c:	80 93 88 00 	sts	0x0088, r24	; 0x800088 <__TEXT_REGION_LENGTH__+0x7e0088>
     270:	82 e0       	ldi	r24, 0x02	; 2
     272:	80 93 6f 00 	sts	0x006F, r24	; 0x80006f <__TEXT_REGION_LENGTH__+0x7e006f>
     276:	10 92 85 00 	sts	0x0085, r1	; 0x800085 <__TEXT_REGION_LENGTH__+0x7e0085>
     27a:	10 92 84 00 	sts	0x0084, r1	; 0x800084 <__TEXT_REGION_LENGTH__+0x7e0084>
     27e:	80 91 6d 01 	lds	r24, 0x016D	; 0x80016d <_avr_timer_M>
     282:	90 91 6e 01 	lds	r25, 0x016E	; 0x80016e <_avr_timer_M+0x1>
     286:	a0 91 6f 01 	lds	r26, 0x016F	; 0x80016f <_avr_timer_M+0x2>
     28a:	b0 91 70 01 	lds	r27, 0x0170	; 0x800170 <_avr_timer_M+0x3>
     28e:	80 93 b1 05 	sts	0x05B1, r24	; 0x8005b1 <_avr_timer_cntcurr>
     292:	90 93 b2 05 	sts	0x05B2, r25	; 0x8005b2 <_avr_timer_cntcurr+0x1>
     296:	a0 93 b3 05 	sts	0x05B3, r26	; 0x8005b3 <_avr_timer_cntcurr+0x2>
     29a:	b0 93 b4 05 	sts	0x05B4, r27	; 0x8005b4 <_avr_timer_cntcurr+0x3>
     29e:	8f b7       	in	r24, 0x3f	; 63
     2a0:	80 68       	ori	r24, 0x80	; 128
     2a2:	8f bf       	out	0x3f, r24	; 63
     2a4:	08 95       	ret

000002a6 <__vector_13>:
     2a6:	1f 92       	push	r1
     2a8:	0f 92       	push	r0
     2aa:	0f b6       	in	r0, 0x3f	; 63
     2ac:	0f 92       	push	r0
     2ae:	11 24       	eor	r1, r1
     2b0:	8f 93       	push	r24
     2b2:	9f 93       	push	r25
     2b4:	af 93       	push	r26
     2b6:	bf 93       	push	r27
     2b8:	80 91 b1 05 	lds	r24, 0x05B1	; 0x8005b1 <_avr_timer_cntcurr>
     2bc:	90 91 b2 05 	lds	r25, 0x05B2	; 0x8005b2 <_avr_timer_cntcurr+0x1>
     2c0:	a0 91 b3 05 	lds	r26, 0x05B3	; 0x8005b3 <_avr_timer_cntcurr+0x2>
     2c4:	b0 91 b4 05 	lds	r27, 0x05B4	; 0x8005b4 <_avr_timer_cntcurr+0x3>
     2c8:	01 97       	sbiw	r24, 0x01	; 1
     2ca:	a1 09       	sbc	r26, r1
     2cc:	b1 09       	sbc	r27, r1
     2ce:	80 93 b1 05 	sts	0x05B1, r24	; 0x8005b1 <_avr_timer_cntcurr>
     2d2:	90 93 b2 05 	sts	0x05B2, r25	; 0x8005b2 <_avr_timer_cntcurr+0x1>
     2d6:	a0 93 b3 05 	sts	0x05B3, r26	; 0x8005b3 <_avr_timer_cntcurr+0x2>
     2da:	b0 93 b4 05 	sts	0x05B4, r27	; 0x8005b4 <_avr_timer_cntcurr+0x3>
     2de:	89 2b       	or	r24, r25
     2e0:	8a 2b       	or	r24, r26
     2e2:	8b 2b       	or	r24, r27
     2e4:	99 f4       	brne	.+38     	; 0x30c <__vector_13+0x66>
     2e6:	81 e0       	ldi	r24, 0x01	; 1
     2e8:	80 93 b5 05 	sts	0x05B5, r24	; 0x8005b5 <TimerFlag>
     2ec:	80 91 6d 01 	lds	r24, 0x016D	; 0x80016d <_avr_timer_M>
     2f0:	90 91 6e 01 	lds	r25, 0x016E	; 0x80016e <_avr_timer_M+0x1>
     2f4:	a0 91 6f 01 	lds	r26, 0x016F	; 0x80016f <_avr_timer_M+0x2>
     2f8:	b0 91 70 01 	lds	r27, 0x0170	; 0x800170 <_avr_timer_M+0x3>
     2fc:	80 93 b1 05 	sts	0x05B1, r24	; 0x8005b1 <_avr_timer_cntcurr>
     300:	90 93 b2 05 	sts	0x05B2, r25	; 0x8005b2 <_avr_timer_cntcurr+0x1>
     304:	a0 93 b3 05 	sts	0x05B3, r26	; 0x8005b3 <_avr_timer_cntcurr+0x2>
     308:	b0 93 b4 05 	sts	0x05B4, r27	; 0x8005b4 <_avr_timer_cntcurr+0x3>
     30c:	bf 91       	pop	r27
     30e:	af 91       	pop	r26
     310:	9f 91       	pop	r25
     312:	8f 91       	pop	r24
     314:	0f 90       	pop	r0
     316:	0f be       	out	0x3f, r0	; 63
     318:	0f 90       	pop	r0
     31a:	1f 90       	pop	r1
     31c:	18 95       	reti

0000031e <delay_ms>:
     31e:	18 16       	cp	r1, r24
     320:	19 06       	cpc	r1, r25
     322:	5c f0       	brlt	.+22     	; 0x33a <delay_ms+0x1c>
     324:	08 95       	ret
     326:	00 00       	nop
     328:	21 50       	subi	r18, 0x01	; 1
     32a:	31 09       	sbc	r19, r1
     32c:	e1 f7       	brne	.-8      	; 0x326 <delay_ms+0x8>
     32e:	4f 5f       	subi	r20, 0xFF	; 255
     330:	5f 4f       	sbci	r21, 0xFF	; 255
     332:	84 17       	cp	r24, r20
     334:	95 07       	cpc	r25, r21
     336:	19 f4       	brne	.+6      	; 0x33e <delay_ms+0x20>
     338:	08 95       	ret
     33a:	40 e0       	ldi	r20, 0x00	; 0
     33c:	50 e0       	ldi	r21, 0x00	; 0
     33e:	27 e0       	ldi	r18, 0x07	; 7
     340:	33 e0       	ldi	r19, 0x03	; 3
     342:	f1 cf       	rjmp	.-30     	; 0x326 <delay_ms+0x8>

00000344 <LCD_WriteCommand>:
     344:	12 98       	cbi	0x02, 2	; 2
     346:	8b b9       	out	0x0b, r24	; 11
     348:	13 9a       	sbi	0x02, 3	; 2
     34a:	00 00       	nop
     34c:	13 98       	cbi	0x02, 3	; 2
     34e:	82 e0       	ldi	r24, 0x02	; 2
     350:	90 e0       	ldi	r25, 0x00	; 0
     352:	e5 cf       	rjmp	.-54     	; 0x31e <delay_ms>
     354:	08 95       	ret

00000356 <LCD_ClearScreen>:
     356:	81 e0       	ldi	r24, 0x01	; 1
     358:	f5 cf       	rjmp	.-22     	; 0x344 <LCD_WriteCommand>
     35a:	08 95       	ret

0000035c <LCD_Cursor>:
     35c:	81 31       	cpi	r24, 0x11	; 17
     35e:	18 f4       	brcc	.+6      	; 0x366 <LCD_Cursor+0xa>
     360:	81 58       	subi	r24, 0x81	; 129
     362:	f0 cf       	rjmp	.-32     	; 0x344 <LCD_WriteCommand>
     364:	08 95       	ret
     366:	81 55       	subi	r24, 0x51	; 81
     368:	ed cf       	rjmp	.-38     	; 0x344 <LCD_WriteCommand>
     36a:	08 95       	ret

0000036c <LCD_init>:
     36c:	84 e6       	ldi	r24, 0x64	; 100
     36e:	90 e0       	ldi	r25, 0x00	; 0
     370:	d6 df       	rcall	.-84     	; 0x31e <delay_ms>
     372:	88 e3       	ldi	r24, 0x38	; 56
     374:	e7 df       	rcall	.-50     	; 0x344 <LCD_WriteCommand>
     376:	86 e0       	ldi	r24, 0x06	; 6
     378:	e5 df       	rcall	.-54     	; 0x344 <LCD_WriteCommand>
     37a:	8f e0       	ldi	r24, 0x0F	; 15
     37c:	e3 df       	rcall	.-58     	; 0x344 <LCD_WriteCommand>
     37e:	81 e0       	ldi	r24, 0x01	; 1
     380:	e1 df       	rcall	.-62     	; 0x344 <LCD_WriteCommand>
     382:	8a e0       	ldi	r24, 0x0A	; 10
     384:	90 e0       	ldi	r25, 0x00	; 0
     386:	cb cf       	rjmp	.-106    	; 0x31e <delay_ms>
     388:	08 95       	ret

0000038a <LCD_WriteData>:
     38a:	12 9a       	sbi	0x02, 2	; 2
     38c:	8b b9       	out	0x0b, r24	; 11
     38e:	13 9a       	sbi	0x02, 3	; 2
     390:	00 00       	nop
     392:	13 98       	cbi	0x02, 3	; 2
     394:	81 e0       	ldi	r24, 0x01	; 1
     396:	90 e0       	ldi	r25, 0x00	; 0
     398:	c2 cf       	rjmp	.-124    	; 0x31e <delay_ms>
     39a:	08 95       	ret

0000039c <LCD_DisplayString>:
     39c:	0f 93       	push	r16
     39e:	1f 93       	push	r17
     3a0:	cf 93       	push	r28
     3a2:	df 93       	push	r29
     3a4:	18 2f       	mov	r17, r24
     3a6:	eb 01       	movw	r28, r22
     3a8:	d6 df       	rcall	.-84     	; 0x356 <LCD_ClearScreen>
     3aa:	88 81       	ld	r24, Y
     3ac:	88 23       	and	r24, r24
     3ae:	51 f0       	breq	.+20     	; 0x3c4 <LCD_DisplayString+0x28>
     3b0:	01 e0       	ldi	r16, 0x01	; 1
     3b2:	01 0f       	add	r16, r17
     3b4:	81 2f       	mov	r24, r17
     3b6:	d2 df       	rcall	.-92     	; 0x35c <LCD_Cursor>
     3b8:	89 91       	ld	r24, Y+
     3ba:	e7 df       	rcall	.-50     	; 0x38a <LCD_WriteData>
     3bc:	10 2f       	mov	r17, r16
     3be:	88 81       	ld	r24, Y
     3c0:	81 11       	cpse	r24, r1
     3c2:	f6 cf       	rjmp	.-20     	; 0x3b0 <LCD_DisplayString+0x14>
     3c4:	df 91       	pop	r29
     3c6:	cf 91       	pop	r28
     3c8:	1f 91       	pop	r17
     3ca:	0f 91       	pop	r16
     3cc:	08 95       	ret

000003ce <GetKeypadKey>:
//Parameter: None
//Returns: A keypad button press else '\0'
unsigned char GetKeypadKey() {

	// Check keys in col 1
	KEYPADPORT = SetBit(0xFF,COL1,0); // Set Px4 to 0; others 1
     3ce:	8f ee       	ldi	r24, 0xEF	; 239
     3d0:	88 b9       	out	0x08, r24	; 8
	asm("nop"); // add a delay to allow PORTx to stabilize before checking
     3d2:	00 00       	nop
	if ( GetBit(~KEYPADPIN,ROW1) ) { return '1'; }
     3d4:	30 9b       	sbis	0x06, 0	; 6
     3d6:	29 c0       	rjmp	.+82     	; 0x42a <__LOCK_REGION_LENGTH__+0x2a>
	if ( GetBit(~KEYPADPIN,ROW2) ) { return '4'; }
     3d8:	31 9b       	sbis	0x06, 1	; 6
     3da:	29 c0       	rjmp	.+82     	; 0x42e <__LOCK_REGION_LENGTH__+0x2e>
	if ( GetBit(~KEYPADPIN,ROW3) ) { return '7'; }
     3dc:	32 9b       	sbis	0x06, 2	; 6
     3de:	29 c0       	rjmp	.+82     	; 0x432 <__LOCK_REGION_LENGTH__+0x32>
	if ( GetBit(~KEYPADPIN,ROW4) ) { return '*'; }
     3e0:	33 9b       	sbis	0x06, 3	; 6
     3e2:	29 c0       	rjmp	.+82     	; 0x436 <__LOCK_REGION_LENGTH__+0x36>

	// Check keys in col 2
	KEYPADPORT = SetBit(0xFF,COL2,0); // Set Px5 to 0; others 1
     3e4:	8f ed       	ldi	r24, 0xDF	; 223
     3e6:	88 b9       	out	0x08, r24	; 8
	asm("nop"); // add a delay to allow PORTx to stabilize before checking
     3e8:	00 00       	nop
	if ( GetBit(~KEYPADPIN,ROW1) ) { return '2'; }
     3ea:	30 9b       	sbis	0x06, 0	; 6
     3ec:	26 c0       	rjmp	.+76     	; 0x43a <__LOCK_REGION_LENGTH__+0x3a>
	if ( GetBit(~KEYPADPIN,ROW2) ) { return '5'; }
     3ee:	31 9b       	sbis	0x06, 1	; 6
     3f0:	26 c0       	rjmp	.+76     	; 0x43e <__LOCK_REGION_LENGTH__+0x3e>
	if ( GetBit(~KEYPADPIN,ROW3) ) { return '8'; }
     3f2:	32 9b       	sbis	0x06, 2	; 6
     3f4:	26 c0       	rjmp	.+76     	; 0x442 <__LOCK_REGION_LENGTH__+0x42>
	if ( GetBit(~KEYPADPIN,ROW4) ) { return '0'; }
     3f6:	33 9b       	sbis	0x06, 3	; 6
     3f8:	26 c0       	rjmp	.+76     	; 0x446 <__LOCK_REGION_LENGTH__+0x46>

	// Check keys in col 3
	KEYPADPORT = SetBit(0xFF,COL3,0); // Set Px6 to 0; others 1
     3fa:	8f eb       	ldi	r24, 0xBF	; 191
     3fc:	88 b9       	out	0x08, r24	; 8
	asm("nop"); // add a delay to allow PORTx to stabilize before checking
     3fe:	00 00       	nop
	if ( GetBit(~KEYPADPIN,ROW1) ) { return '3'; }
     400:	30 9b       	sbis	0x06, 0	; 6
     402:	23 c0       	rjmp	.+70     	; 0x44a <__LOCK_REGION_LENGTH__+0x4a>
	if ( GetBit(~KEYPADPIN,ROW2) ) { return '6'; }
     404:	31 9b       	sbis	0x06, 1	; 6
     406:	23 c0       	rjmp	.+70     	; 0x44e <__LOCK_REGION_LENGTH__+0x4e>
	if ( GetBit(~KEYPADPIN,ROW3) ) { return '9'; }
     408:	32 9b       	sbis	0x06, 2	; 6
     40a:	23 c0       	rjmp	.+70     	; 0x452 <__LOCK_REGION_LENGTH__+0x52>
	if ( GetBit(~KEYPADPIN,ROW4) ) { return '#'; }
     40c:	33 9b       	sbis	0x06, 3	; 6
     40e:	23 c0       	rjmp	.+70     	; 0x456 <__LOCK_REGION_LENGTH__+0x56>

	// Check keys in col 4
	KEYPADPORT = SetBit(0xFF,COL4,0); // Set Px7 to 0; others 1
     410:	8f e7       	ldi	r24, 0x7F	; 127
     412:	88 b9       	out	0x08, r24	; 8
	asm("nop"); // add a delay to allow PORTx to stabilize before checking
     414:	00 00       	nop
	if (GetBit(~KEYPADPIN,ROW1) ) { return 'A'; }
     416:	30 9b       	sbis	0x06, 0	; 6
     418:	20 c0       	rjmp	.+64     	; 0x45a <__LOCK_REGION_LENGTH__+0x5a>
	if (GetBit(~KEYPADPIN,ROW2) ) { return 'B'; }
     41a:	31 9b       	sbis	0x06, 1	; 6
     41c:	20 c0       	rjmp	.+64     	; 0x45e <__LOCK_REGION_LENGTH__+0x5e>
	if (GetBit(~KEYPADPIN,ROW3) ) { return 'C'; }
     41e:	32 9b       	sbis	0x06, 2	; 6
     420:	20 c0       	rjmp	.+64     	; 0x462 <__LOCK_REGION_LENGTH__+0x62>
	if (GetBit(~KEYPADPIN,ROW4) ) { return 'D'; }
     422:	33 9b       	sbis	0x06, 3	; 6
     424:	20 c0       	rjmp	.+64     	; 0x466 <__LOCK_REGION_LENGTH__+0x66>
	
	return '\0';
     426:	80 e0       	ldi	r24, 0x00	; 0
     428:	08 95       	ret
unsigned char GetKeypadKey() {

	// Check keys in col 1
	KEYPADPORT = SetBit(0xFF,COL1,0); // Set Px4 to 0; others 1
	asm("nop"); // add a delay to allow PORTx to stabilize before checking
	if ( GetBit(~KEYPADPIN,ROW1) ) { return '1'; }
     42a:	81 e3       	ldi	r24, 0x31	; 49
     42c:	08 95       	ret
	if ( GetBit(~KEYPADPIN,ROW2) ) { return '4'; }
     42e:	84 e3       	ldi	r24, 0x34	; 52
     430:	08 95       	ret
	if ( GetBit(~KEYPADPIN,ROW3) ) { return '7'; }
     432:	87 e3       	ldi	r24, 0x37	; 55
     434:	08 95       	ret
	if ( GetBit(~KEYPADPIN,ROW4) ) { return '*'; }
     436:	8a e2       	ldi	r24, 0x2A	; 42
     438:	08 95       	ret

	// Check keys in col 2
	KEYPADPORT = SetBit(0xFF,COL2,0); // Set Px5 to 0; others 1
	asm("nop"); // add a delay to allow PORTx to stabilize before checking
	if ( GetBit(~KEYPADPIN,ROW1) ) { return '2'; }
     43a:	82 e3       	ldi	r24, 0x32	; 50
     43c:	08 95       	ret
	if ( GetBit(~KEYPADPIN,ROW2) ) { return '5'; }
     43e:	85 e3       	ldi	r24, 0x35	; 53
     440:	08 95       	ret
	if ( GetBit(~KEYPADPIN,ROW3) ) { return '8'; }
     442:	88 e3       	ldi	r24, 0x38	; 56
     444:	08 95       	ret
	if ( GetBit(~KEYPADPIN,ROW4) ) { return '0'; }
     446:	80 e3       	ldi	r24, 0x30	; 48
     448:	08 95       	ret

	// Check keys in col 3
	KEYPADPORT = SetBit(0xFF,COL3,0); // Set Px6 to 0; others 1
	asm("nop"); // add a delay to allow PORTx to stabilize before checking
	if ( GetBit(~KEYPADPIN,ROW1) ) { return '3'; }
     44a:	83 e3       	ldi	r24, 0x33	; 51
     44c:	08 95       	ret
	if ( GetBit(~KEYPADPIN,ROW2) ) { return '6'; }
     44e:	86 e3       	ldi	r24, 0x36	; 54
     450:	08 95       	ret
	if ( GetBit(~KEYPADPIN,ROW3) ) { return '9'; }
     452:	89 e3       	ldi	r24, 0x39	; 57
     454:	08 95       	ret
	if ( GetBit(~KEYPADPIN,ROW4) ) { return '#'; }
     456:	83 e2       	ldi	r24, 0x23	; 35
     458:	08 95       	ret

	// Check keys in col 4
	KEYPADPORT = SetBit(0xFF,COL4,0); // Set Px7 to 0; others 1
	asm("nop"); // add a delay to allow PORTx to stabilize before checking
	if (GetBit(~KEYPADPIN,ROW1) ) { return 'A'; }
     45a:	81 e4       	ldi	r24, 0x41	; 65
     45c:	08 95       	ret
	if (GetBit(~KEYPADPIN,ROW2) ) { return 'B'; }
     45e:	82 e4       	ldi	r24, 0x42	; 66
     460:	08 95       	ret
	if (GetBit(~KEYPADPIN,ROW3) ) { return 'C'; }
     462:	83 e4       	ldi	r24, 0x43	; 67
     464:	08 95       	ret
	if (GetBit(~KEYPADPIN,ROW4) ) { return 'D'; }
     466:	84 e4       	ldi	r24, 0x44	; 68
	
	return '\0';
}
     468:	08 95       	ret

0000046a <K_tick>:
	}
	return state;
}

int K_tick(int state) {
	switch (state){
     46a:	02 97       	sbiw	r24, 0x02	; 2
	switch (state){
		case K_Begin:
		break;
		
		case grabKey:
		keyPressed = GetKeypadKey();
     46c:	30 f4       	brcc	.+12     	; 0x47a <K_tick+0x10>
     46e:	af df       	rcall	.-162    	; 0x3ce <GetKeypadKey>
     470:	80 93 c9 05 	sts	0x05C9, r24	; 0x8005c9 <keyPressed>
}

int K_tick(int state) {
	switch (state){
		case K_Begin:
		state = grabKey;
     474:	81 e0       	ldi	r24, 0x01	; 1
		case K_Begin:
		break;
		
		case grabKey:
		keyPressed = GetKeypadKey();
		break;
     476:	90 e0       	ldi	r25, 0x00	; 0
		case grabKey:
		state = grabKey;
		break;
		
		default:
		state = K_Begin;
     478:	08 95       	ret
     47a:	80 e0       	ldi	r24, 0x00	; 0
		
		default:
		break;
	}
	return state;
}
     47c:	90 e0       	ldi	r25, 0x00	; 0
     47e:	08 95       	ret

00000480 <ADC_init>:
enum A_States {A_Begin, A_inGame} Astates;
enum H_States {H_Begin, H_inGame} Hstates;
enum M_States {M_Begin, M_Sta, M_asteroid, M_hyperDrive ,M_level ,M_gameOver} Mstates;//M_hyperdrive not used
	
void ADC_init() {
	ADCSRA = 0;
     480:	ea e7       	ldi	r30, 0x7A	; 122
     482:	f0 e0       	ldi	r31, 0x00	; 0
     484:	10 82       	st	Z, r1
	ADMUX = 0;
     486:	10 92 7c 00 	sts	0x007C, r1	; 0x80007c <__TEXT_REGION_LENGTH__+0x7e007c>
	ADCSRA |= (1 << ADEN) | (1 << ADSC) | (1 << ADATE);
     48a:	80 81       	ld	r24, Z
     48c:	80 6e       	ori	r24, 0xE0	; 224
     48e:	80 83       	st	Z, r24
     490:	08 95       	ret

00000492 <InitADC>:
//Used the code from http://www.embedds.com/interfacing-analog-joystick-with-avr/ to know how to convert the adc of the
//2 axis joystick within one tick. Both the INITADC() and the readadc() functions came from this site

void InitADC(void)
{
	ADMUX = 0;
     492:	ac e7       	ldi	r26, 0x7C	; 124
     494:	b0 e0       	ldi	r27, 0x00	; 0
     496:	1c 92       	st	X, r1
	ADCSRA = 0;
     498:	ea e7       	ldi	r30, 0x7A	; 122
     49a:	f0 e0       	ldi	r31, 0x00	; 0
     49c:	10 82       	st	Z, r1
	ADMUX|=(1<<REFS0);
     49e:	8c 91       	ld	r24, X
     4a0:	80 64       	ori	r24, 0x40	; 64
     4a2:	8c 93       	st	X, r24
	ADCSRA|=(1<<ADEN)|(1<<ADPS0)|(1<<ADPS1)|(1<<ADPS2); //ENABLE ADC, PRESCALER 128
     4a4:	80 81       	ld	r24, Z
     4a6:	87 68       	ori	r24, 0x87	; 135
     4a8:	80 83       	st	Z, r24
     4aa:	08 95       	ret

000004ac <readadc>:
}

uint16_t readadc(uint8_t ch)
{
	ch&=0b00000111;         //ANDing to limit input to 7
	ADMUX = (ADMUX & 0xf8)|ch;  //Clear last 3 bits of ADMUX, OR with ch
     4ac:	ec e7       	ldi	r30, 0x7C	; 124
     4ae:	f0 e0       	ldi	r31, 0x00	; 0
     4b0:	90 81       	ld	r25, Z
     4b2:	98 7f       	andi	r25, 0xF8	; 248
     4b4:	87 70       	andi	r24, 0x07	; 7
     4b6:	89 2b       	or	r24, r25
     4b8:	80 83       	st	Z, r24
	ADCSRA|=(1<<ADSC);        //START CONVERSION
     4ba:	ea e7       	ldi	r30, 0x7A	; 122
     4bc:	f0 e0       	ldi	r31, 0x00	; 0
     4be:	80 81       	ld	r24, Z
     4c0:	80 64       	ori	r24, 0x40	; 64
     4c2:	80 83       	st	Z, r24
	while((ADCSRA)&(1<<ADSC));    //WAIT UNTIL CONVERSION IS COMPLETE
     4c4:	80 81       	ld	r24, Z
     4c6:	86 fd       	sbrc	r24, 6
     4c8:	fd cf       	rjmp	.-6      	; 0x4c4 <readadc+0x18>
	return(ADC);        //RETURN ADC VALUE
     4ca:	80 91 78 00 	lds	r24, 0x0078	; 0x800078 <__TEXT_REGION_LENGTH__+0x7e0078>
     4ce:	90 91 79 00 	lds	r25, 0x0079	; 0x800079 <__TEXT_REGION_LENGTH__+0x7e0079>
}
     4d2:	08 95       	ret

000004d4 <J_tick>:
	}
	return state;
}

int J_tick(int state) {
	switch (state){
     4d4:	02 97       	sbiw	r24, 0x02	; 2
     4d6:	08 f0       	brcs	.+2      	; 0x4da <J_tick+0x6>
     4d8:	50 c0       	rjmp	.+160    	; 0x57a <J_tick+0xa6>
	switch (state){
		case J_Begin:
		break;
		
		case grabDirection:
		x = (unsigned char) readadc(0);
     4da:	80 e0       	ldi	r24, 0x00	; 0
     4dc:	e7 df       	rcall	.-50     	; 0x4ac <readadc>
     4de:	99 27       	eor	r25, r25
     4e0:	90 93 b9 05 	sts	0x05B9, r25	; 0x8005b9 <x+0x1>
     4e4:	80 93 b8 05 	sts	0x05B8, r24	; 0x8005b8 <x>
		y = (unsigned char)readadc(1);
     4e8:	81 e0       	ldi	r24, 0x01	; 1
     4ea:	e0 df       	rcall	.-64     	; 0x4ac <readadc>
     4ec:	99 27       	eor	r25, r25
     4ee:	90 93 9e 05 	sts	0x059E, r25	; 0x80059e <y+0x1>
     4f2:	80 93 9d 05 	sts	0x059D, r24	; 0x80059d <y>
		if(x > 200 && y < 200 && y > 27)
     4f6:	20 91 b8 05 	lds	r18, 0x05B8	; 0x8005b8 <x>
     4fa:	30 91 b9 05 	lds	r19, 0x05B9	; 0x8005b9 <x+0x1>
     4fe:	29 3c       	cpi	r18, 0xC9	; 201
     500:	31 05       	cpc	r19, r1
     502:	58 f0       	brcs	.+22     	; 0x51a <J_tick+0x46>
     504:	ac 01       	movw	r20, r24
     506:	4c 51       	subi	r20, 0x1C	; 28
     508:	51 09       	sbc	r21, r1
     50a:	4c 3a       	cpi	r20, 0xAC	; 172
     50c:	51 05       	cpc	r21, r1
		{
			direction = 0;//right
     50e:	a0 f4       	brcc	.+40     	; 0x538 <J_tick+0x64>
     510:	10 92 9c 05 	sts	0x059C, r1	; 0x80059c <direction>
}

int J_tick(int state) {
	switch (state){
		case J_Begin:
		state = grabDirection;
     514:	81 e0       	ldi	r24, 0x01	; 1
		case grabDirection:
		x = (unsigned char) readadc(0);
		y = (unsigned char)readadc(1);
		if(x > 200 && y < 200 && y > 27)
		{
			direction = 0;//right
     516:	90 e0       	ldi	r25, 0x00	; 0
		}
		else if (x < 27 && y < 200 && y > 27)
     518:	08 95       	ret
     51a:	2b 31       	cpi	r18, 0x1B	; 27
     51c:	31 05       	cpc	r19, r1
     51e:	60 f4       	brcc	.+24     	; 0x538 <J_tick+0x64>
     520:	ac 01       	movw	r20, r24
     522:	4c 51       	subi	r20, 0x1C	; 28
     524:	51 09       	sbc	r21, r1
     526:	4c 3a       	cpi	r20, 0xAC	; 172
     528:	51 05       	cpc	r21, r1
		{
			direction = 1;//left
     52a:	30 f4       	brcc	.+12     	; 0x538 <J_tick+0x64>
     52c:	81 e0       	ldi	r24, 0x01	; 1
     52e:	80 93 9c 05 	sts	0x059C, r24	; 0x80059c <direction>
}

int J_tick(int state) {
	switch (state){
		case J_Begin:
		state = grabDirection;
     532:	81 e0       	ldi	r24, 0x01	; 1
		{
			direction = 0;//right
		}
		else if (x < 27 && y < 200 && y > 27)
		{
			direction = 1;//left
     534:	90 e0       	ldi	r25, 0x00	; 0
		}
		else if (y > 200 && x < 150 && x > 30)
     536:	08 95       	ret
     538:	89 3c       	cpi	r24, 0xC9	; 201
     53a:	91 05       	cpc	r25, r1
     53c:	58 f0       	brcs	.+22     	; 0x554 <J_tick+0x80>
     53e:	2f 51       	subi	r18, 0x1F	; 31
     540:	31 09       	sbc	r19, r1
     542:	27 37       	cpi	r18, 0x77	; 119
     544:	31 05       	cpc	r19, r1
		{
			direction = 2;//up
     546:	98 f4       	brcc	.+38     	; 0x56e <J_tick+0x9a>
     548:	82 e0       	ldi	r24, 0x02	; 2
     54a:	80 93 9c 05 	sts	0x059C, r24	; 0x80059c <direction>
}

int J_tick(int state) {
	switch (state){
		case J_Begin:
		state = grabDirection;
     54e:	81 e0       	ldi	r24, 0x01	; 1
		{
			direction = 1;//left
		}
		else if (y > 200 && x < 150 && x > 30)
		{
			direction = 2;//up
     550:	90 e0       	ldi	r25, 0x00	; 0
		}
		else if (y < 27 && x < 150 && x > 30)
     552:	08 95       	ret
     554:	4b 97       	sbiw	r24, 0x1b	; 27
     556:	58 f4       	brcc	.+22     	; 0x56e <J_tick+0x9a>
     558:	2f 51       	subi	r18, 0x1F	; 31
     55a:	31 09       	sbc	r19, r1
     55c:	27 37       	cpi	r18, 0x77	; 119
     55e:	31 05       	cpc	r19, r1
		{
			direction = 3;//down
     560:	30 f4       	brcc	.+12     	; 0x56e <J_tick+0x9a>
     562:	83 e0       	ldi	r24, 0x03	; 3
     564:	80 93 9c 05 	sts	0x059C, r24	; 0x80059c <direction>
}

int J_tick(int state) {
	switch (state){
		case J_Begin:
		state = grabDirection;
     568:	81 e0       	ldi	r24, 0x01	; 1
		{
			direction = 2;//up
		}
		else if (y < 27 && x < 150 && x > 30)
		{
			direction = 3;//down
     56a:	90 e0       	ldi	r25, 0x00	; 0
		{
			direction = 0x02;//left
		}*/
		else
		{
			direction = 5;
     56c:	08 95       	ret
     56e:	85 e0       	ldi	r24, 0x05	; 5
     570:	80 93 9c 05 	sts	0x059C, r24	; 0x80059c <direction>
}

int J_tick(int state) {
	switch (state){
		case J_Begin:
		state = grabDirection;
     574:	81 e0       	ldi	r24, 0x01	; 1
     576:	90 e0       	ldi	r25, 0x00	; 0
		case grabDirection:
		state = grabDirection;
		break;
		
		default:
		state = J_Begin;
     578:	08 95       	ret
     57a:	80 e0       	ldi	r24, 0x00	; 0
		
		default:
		break;
	}
	return state;
}
     57c:	90 e0       	ldi	r25, 0x00	; 0
     57e:	08 95       	ret

00000580 <transmit_data1>:
//to know how to wire the shift registers and the falgs needed to be set to use the registers. Both the transmit_data1() and the transmit_data2() functions came from this site
//and were modified for my specific needs.

void transmit_data1(unsigned char data) {
	int i;
	for (i = 0; i < 8 ; ++i) {
     580:	20 e0       	ldi	r18, 0x00	; 0
     582:	30 e0       	ldi	r19, 0x00	; 0
		// Sets SRCLR to 1 allowing data to be set
		// Also clears SRCLK in preparation of sending data
		PORTB = 0x08;
     584:	58 e0       	ldi	r21, 0x08	; 8
		// set SER = next bit of data to be sent.
		PORTB |= ((data >> i) & 0x01);
     586:	e8 2f       	mov	r30, r24
     588:	f0 e0       	ldi	r31, 0x00	; 0
void transmit_data1(unsigned char data) {
	int i;
	for (i = 0; i < 8 ; ++i) {
		// Sets SRCLR to 1 allowing data to be set
		// Also clears SRCLK in preparation of sending data
		PORTB = 0x08;
     58a:	55 b9       	out	0x05, r21	; 5
		// set SER = next bit of data to be sent.
		PORTB |= ((data >> i) & 0x01);
     58c:	45 b1       	in	r20, 0x05	; 5
     58e:	bf 01       	movw	r22, r30
     590:	02 2e       	mov	r0, r18
     592:	02 c0       	rjmp	.+4      	; 0x598 <transmit_data1+0x18>
     594:	75 95       	asr	r23
     596:	67 95       	ror	r22
     598:	0a 94       	dec	r0
     59a:	e2 f7       	brpl	.-8      	; 0x594 <transmit_data1+0x14>
     59c:	96 2f       	mov	r25, r22
     59e:	91 70       	andi	r25, 0x01	; 1
     5a0:	94 2b       	or	r25, r20
     5a2:	95 b9       	out	0x05, r25	; 5
		// set SRCLK = 1. Rising edge shifts next bit of data into the shift register
		PORTB |= 0x02;
     5a4:	29 9a       	sbi	0x05, 1	; 5
//to know how to wire the shift registers and the falgs needed to be set to use the registers. Both the transmit_data1() and the transmit_data2() functions came from this site
//and were modified for my specific needs.

void transmit_data1(unsigned char data) {
	int i;
	for (i = 0; i < 8 ; ++i) {
     5a6:	2f 5f       	subi	r18, 0xFF	; 255
     5a8:	3f 4f       	sbci	r19, 0xFF	; 255
     5aa:	28 30       	cpi	r18, 0x08	; 8
     5ac:	31 05       	cpc	r19, r1
     5ae:	69 f7       	brne	.-38     	; 0x58a <transmit_data1+0xa>
		PORTB |= ((data >> i) & 0x01);
		// set SRCLK = 1. Rising edge shifts next bit of data into the shift register
		PORTB |= 0x02;
	}
	// set RCLK = 1. Rising edge copies data from “Shift” register to “Storage” register
	PORTB |= 0x04;
     5b0:	2a 9a       	sbi	0x05, 2	; 5
	// clears all lines in preparation of a new transmission
	PORTB = 0x00;
     5b2:	15 b8       	out	0x05, r1	; 5
     5b4:	08 95       	ret

000005b6 <transmit_data2>:
}

void transmit_data2(unsigned char data) {
	int i;
	for (i = 0; i < 8 ; ++i) {
     5b6:	40 e0       	ldi	r20, 0x00	; 0
     5b8:	50 e0       	ldi	r21, 0x00	; 0
		// Sets SRCLR to 1 allowing data to be set
		// Also clears SRCLK in preparation of sending data
		PORTB = 0x80;
     5ba:	e0 e8       	ldi	r30, 0x80	; 128
		// set SER = next bit of data to be sent.
		PORTB |= (((data >> i) & 0x01)<<4);
     5bc:	68 2f       	mov	r22, r24
     5be:	70 e0       	ldi	r23, 0x00	; 0
void transmit_data2(unsigned char data) {
	int i;
	for (i = 0; i < 8 ; ++i) {
		// Sets SRCLR to 1 allowing data to be set
		// Also clears SRCLK in preparation of sending data
		PORTB = 0x80;
     5c0:	e5 b9       	out	0x05, r30	; 5
		// set SER = next bit of data to be sent.
		PORTB |= (((data >> i) & 0x01)<<4);
     5c2:	95 b1       	in	r25, 0x05	; 5
     5c4:	9b 01       	movw	r18, r22
     5c6:	04 2e       	mov	r0, r20
     5c8:	02 c0       	rjmp	.+4      	; 0x5ce <transmit_data2+0x18>
     5ca:	35 95       	asr	r19
     5cc:	27 95       	ror	r18
     5ce:	0a 94       	dec	r0
     5d0:	e2 f7       	brpl	.-8      	; 0x5ca <transmit_data2+0x14>
     5d2:	21 70       	andi	r18, 0x01	; 1
     5d4:	33 27       	eor	r19, r19
     5d6:	22 95       	swap	r18
     5d8:	32 95       	swap	r19
     5da:	30 7f       	andi	r19, 0xF0	; 240
     5dc:	32 27       	eor	r19, r18
     5de:	20 7f       	andi	r18, 0xF0	; 240
     5e0:	32 27       	eor	r19, r18
     5e2:	29 2b       	or	r18, r25
     5e4:	25 b9       	out	0x05, r18	; 5
		// set SRCLK = 1. Rising edge shifts next bit of data into the shift register
		PORTB |= 0x20;
     5e6:	2d 9a       	sbi	0x05, 5	; 5
	PORTB = 0x00;
}

void transmit_data2(unsigned char data) {
	int i;
	for (i = 0; i < 8 ; ++i) {
     5e8:	4f 5f       	subi	r20, 0xFF	; 255
     5ea:	5f 4f       	sbci	r21, 0xFF	; 255
     5ec:	48 30       	cpi	r20, 0x08	; 8
     5ee:	51 05       	cpc	r21, r1
     5f0:	39 f7       	brne	.-50     	; 0x5c0 <transmit_data2+0xa>
		PORTB |= (((data >> i) & 0x01)<<4);
		// set SRCLK = 1. Rising edge shifts next bit of data into the shift register
		PORTB |= 0x20;
	}
	// set RCLK = 1. Rising edge copies data from “Shift” register to “Storage” register
	PORTB |= 0x40;
     5f2:	2e 9a       	sbi	0x05, 6	; 5
	// clears all lines in preparation of a new transmission
	PORTB = 0x00;
     5f4:	15 b8       	out	0x05, r1	; 5
     5f6:	08 95       	ret

000005f8 <H_tick>:
	}
	return state;
}

int H_tick(int state) {
	switch (state){
     5f8:	00 97       	sbiw	r24, 0x00	; 0
     5fa:	19 f0       	breq	.+6      	; 0x602 <H_tick+0xa>
     5fc:	01 97       	sbiw	r24, 0x01	; 1
     5fe:	b1 f0       	breq	.+44     	; 0x62c <H_tick+0x34>
     600:	1f c0       	rjmp	.+62     	; 0x640 <H_tick+0x48>
		case H_Begin:
		if(gameStart == 1)
     602:	20 91 84 05 	lds	r18, 0x0584	; 0x800584 <gameStart>
     606:	21 30       	cpi	r18, 0x01	; 1
     608:	09 f0       	breq	.+2      	; 0x60c <H_tick+0x14>
     60a:	e3 c0       	rjmp	.+454    	; 0x7d2 <H_tick+0x1da>
		{
			gameStart = 0;
     60c:	10 92 84 05 	sts	0x0584, r1	; 0x800584 <gameStart>
			InitADC();
			index = 0;
     610:	40 df       	rcall	.-384    	; 0x492 <InitADC>
     612:	10 92 81 05 	sts	0x0581, r1	; 0x800581 <index>
			T = 0;
     616:	10 92 80 05 	sts	0x0580, r1	; 0x800580 <T+0x1>
     61a:	10 92 7f 05 	sts	0x057F, r1	; 0x80057f <T>
			num = 200;
     61e:	88 ec       	ldi	r24, 0xC8	; 200
     620:	90 e0       	ldi	r25, 0x00	; 0
     622:	90 93 05 01 	sts	0x0105, r25	; 0x800105 <num+0x1>
     626:	80 93 04 01 	sts	0x0104, r24	; 0x800104 <num>
			state = H_inGame;
		}
		else
		{
			state = H_Begin;
     62a:	10 c0       	rjmp	.+32     	; 0x64c <H_tick+0x54>
     62c:	31 e0       	ldi	r19, 0x01	; 1
     62e:	20 e0       	ldi	r18, 0x00	; 0
     630:	80 91 84 05 	lds	r24, 0x0584	; 0x800584 <gameStart>
     634:	81 30       	cpi	r24, 0x01	; 1
     636:	09 f4       	brne	.+2      	; 0x63a <H_tick+0x42>
     638:	30 e0       	ldi	r19, 0x00	; 0
     63a:	83 2f       	mov	r24, r19
     63c:	92 2f       	mov	r25, r18
			state = H_inGame;
		}
		break;
		
		default:
		state = H_Begin;
     63e:	02 c0       	rjmp	.+4      	; 0x644 <H_tick+0x4c>
     640:	80 e0       	ldi	r24, 0x00	; 0
		break;
	}
	
	switch (state){
     642:	90 e0       	ldi	r25, 0x00	; 0
     644:	81 30       	cpi	r24, 0x01	; 1
     646:	91 05       	cpc	r25, r1
     648:	09 f0       	breq	.+2      	; 0x64c <H_tick+0x54>
		case H_Begin:
		break;
		
		case H_inGame:
		hButtonPressed = ~PINA & 0x80;
     64a:	c3 c0       	rjmp	.+390    	; 0x7d2 <H_tick+0x1da>
     64c:	80 b1       	in	r24, 0x00	; 0
     64e:	80 95       	com	r24
     650:	80 78       	andi	r24, 0x80	; 128
     652:	80 93 7b 05 	sts	0x057B, r24	; 0x80057b <hButtonPressed>
		if((hButtonPressed == 0x80) &&	index == 3)
     656:	80 38       	cpi	r24, 0x80	; 128
     658:	81 f4       	brne	.+32     	; 0x67a <H_tick+0x82>
     65a:	80 91 81 05 	lds	r24, 0x0581	; 0x800581 <index>
     65e:	83 30       	cpi	r24, 0x03	; 3
		{
			hCompleted = 1;
     660:	31 f4       	brne	.+12     	; 0x66e <H_tick+0x76>
     662:	81 e0       	ldi	r24, 0x01	; 1
     664:	80 93 7e 05 	sts	0x057E, r24	; 0x80057e <hCompleted>
			hToggle=1;
     668:	80 93 7c 05 	sts	0x057C, r24	; 0x80057c <hToggle>
		}
		else if((hButtonPressed == 0x80) &&	index != 3)
		{
			hToggle = 1;
     66c:	b0 c0       	rjmp	.+352    	; 0x7ce <H_tick+0x1d6>
     66e:	81 e0       	ldi	r24, 0x01	; 1
     670:	80 93 7c 05 	sts	0x057C, r24	; 0x80057c <hToggle>
			Hkilled = 1;
     674:	80 93 7d 05 	sts	0x057D, r24	; 0x80057d <Hkilled>
		}
		
		if(hToggle == 1)
     678:	aa c0       	rjmp	.+340    	; 0x7ce <H_tick+0x1d6>
     67a:	80 91 7c 05 	lds	r24, 0x057C	; 0x80057c <hToggle>
     67e:	81 30       	cpi	r24, 0x01	; 1
     680:	09 f4       	brne	.+2      	; 0x684 <H_tick+0x8c>
		{
			
		}
		else
		{
			if(num >= 0)
     682:	a2 c0       	rjmp	.+324    	; 0x7c8 <H_tick+0x1d0>
     684:	80 91 04 01 	lds	r24, 0x0104	; 0x800104 <num>
     688:	90 91 05 01 	lds	r25, 0x0105	; 0x800105 <num+0x1>
     68c:	99 23       	and	r25, r25
     68e:	0c f4       	brge	.+2      	; 0x692 <H_tick+0x9a>
			{
				if(index == 0)
     690:	57 c0       	rjmp	.+174    	; 0x740 <H_tick+0x148>
     692:	80 91 81 05 	lds	r24, 0x0581	; 0x800581 <index>
     696:	81 11       	cpse	r24, r1
				{
					transmit_data1(bigX[T]);
     698:	11 c0       	rjmp	.+34     	; 0x6bc <H_tick+0xc4>
     69a:	e0 91 7f 05 	lds	r30, 0x057F	; 0x80057f <T>
     69e:	f0 91 80 05 	lds	r31, 0x0580	; 0x800580 <T+0x1>
     6a2:	eb 59       	subi	r30, 0x9B	; 155
     6a4:	fe 4f       	sbci	r31, 0xFE	; 254
     6a6:	80 81       	ld	r24, Z
					transmit_data2(bigY[T]);
     6a8:	6b df       	rcall	.-298    	; 0x580 <transmit_data1>
     6aa:	e0 91 7f 05 	lds	r30, 0x057F	; 0x80057f <T>
     6ae:	f0 91 80 05 	lds	r31, 0x0580	; 0x800580 <T+0x1>
     6b2:	e3 5a       	subi	r30, 0xA3	; 163
     6b4:	fe 4f       	sbci	r31, 0xFE	; 254
     6b6:	80 81       	ld	r24, Z
     6b8:	7e df       	rcall	.-260    	; 0x5b6 <transmit_data2>
				}
				else if(index == 1)
     6ba:	38 c0       	rjmp	.+112    	; 0x72c <H_tick+0x134>
     6bc:	81 30       	cpi	r24, 0x01	; 1
				{
					transmit_data1(bigMX[T]);
     6be:	89 f4       	brne	.+34     	; 0x6e2 <H_tick+0xea>
     6c0:	e0 91 7f 05 	lds	r30, 0x057F	; 0x80057f <T>
     6c4:	f0 91 80 05 	lds	r31, 0x0580	; 0x800580 <T+0x1>
     6c8:	eb 5a       	subi	r30, 0xAB	; 171
     6ca:	fe 4f       	sbci	r31, 0xFE	; 254
     6cc:	80 81       	ld	r24, Z
					transmit_data2(bigMY[T]);
     6ce:	58 df       	rcall	.-336    	; 0x580 <transmit_data1>
     6d0:	e0 91 7f 05 	lds	r30, 0x057F	; 0x80057f <T>
     6d4:	f0 91 80 05 	lds	r31, 0x0580	; 0x800580 <T+0x1>
     6d8:	e3 5b       	subi	r30, 0xB3	; 179
     6da:	fe 4f       	sbci	r31, 0xFE	; 254
     6dc:	80 81       	ld	r24, Z
     6de:	6b df       	rcall	.-298    	; 0x5b6 <transmit_data2>
				}
				else if(index == 2)
     6e0:	25 c0       	rjmp	.+74     	; 0x72c <H_tick+0x134>
     6e2:	82 30       	cpi	r24, 0x02	; 2
				{
					transmit_data1(smallMX[T]);
     6e4:	89 f4       	brne	.+34     	; 0x708 <H_tick+0x110>
     6e6:	e0 91 7f 05 	lds	r30, 0x057F	; 0x80057f <T>
     6ea:	f0 91 80 05 	lds	r31, 0x0580	; 0x800580 <T+0x1>
     6ee:	eb 5b       	subi	r30, 0xBB	; 187
     6f0:	fe 4f       	sbci	r31, 0xFE	; 254
     6f2:	80 81       	ld	r24, Z
					transmit_data2(smallMY[T]);
     6f4:	45 df       	rcall	.-374    	; 0x580 <transmit_data1>
     6f6:	e0 91 7f 05 	lds	r30, 0x057F	; 0x80057f <T>
     6fa:	f0 91 80 05 	lds	r31, 0x0580	; 0x800580 <T+0x1>
     6fe:	e3 5c       	subi	r30, 0xC3	; 195
     700:	fe 4f       	sbci	r31, 0xFE	; 254
     702:	80 81       	ld	r24, Z
     704:	58 df       	rcall	.-336    	; 0x5b6 <transmit_data2>
				}
				else if(index == 3)
     706:	12 c0       	rjmp	.+36     	; 0x72c <H_tick+0x134>
				{
					transmit_data1(smallX[T]);
     708:	83 30       	cpi	r24, 0x03	; 3
     70a:	81 f4       	brne	.+32     	; 0x72c <H_tick+0x134>
     70c:	e0 91 7f 05 	lds	r30, 0x057F	; 0x80057f <T>
     710:	f0 91 80 05 	lds	r31, 0x0580	; 0x800580 <T+0x1>
     714:	eb 5c       	subi	r30, 0xCB	; 203
					transmit_data2(smallY[T]);
     716:	fe 4f       	sbci	r31, 0xFE	; 254
     718:	80 81       	ld	r24, Z
     71a:	32 df       	rcall	.-412    	; 0x580 <transmit_data1>
     71c:	e0 91 7f 05 	lds	r30, 0x057F	; 0x80057f <T>
     720:	f0 91 80 05 	lds	r31, 0x0580	; 0x800580 <T+0x1>
     724:	e3 5d       	subi	r30, 0xD3	; 211
     726:	fe 4f       	sbci	r31, 0xFE	; 254
				}
				num--;
     728:	80 81       	ld	r24, Z
     72a:	45 df       	rcall	.-374    	; 0x5b6 <transmit_data2>
     72c:	80 91 04 01 	lds	r24, 0x0104	; 0x800104 <num>
     730:	90 91 05 01 	lds	r25, 0x0105	; 0x800105 <num+0x1>
     734:	01 97       	sbiw	r24, 0x01	; 1
     736:	90 93 05 01 	sts	0x0105, r25	; 0x800105 <num+0x1>
     73a:	80 93 04 01 	sts	0x0104, r24	; 0x800104 <num>
			}
			else
			{
				if(index == 3)
     73e:	2e c0       	rjmp	.+92     	; 0x79c <H_tick+0x1a4>
     740:	80 91 81 05 	lds	r24, 0x0581	; 0x800581 <index>
				{
					num = 200;
     744:	83 30       	cpi	r24, 0x03	; 3
     746:	49 f4       	brne	.+18     	; 0x75a <H_tick+0x162>
     748:	88 ec       	ldi	r24, 0xC8	; 200
     74a:	90 e0       	ldi	r25, 0x00	; 0
     74c:	90 93 05 01 	sts	0x0105, r25	; 0x800105 <num+0x1>
					index = 0;
     750:	80 93 04 01 	sts	0x0104, r24	; 0x800104 <num>
     754:	10 92 81 05 	sts	0x0581, r1	; 0x800581 <index>
				}
				else if(index == 2)
     758:	21 c0       	rjmp	.+66     	; 0x79c <H_tick+0x1a4>
				{
					num = 200;
     75a:	82 30       	cpi	r24, 0x02	; 2
     75c:	51 f4       	brne	.+20     	; 0x772 <H_tick+0x17a>
     75e:	88 ec       	ldi	r24, 0xC8	; 200
     760:	90 e0       	ldi	r25, 0x00	; 0
     762:	90 93 05 01 	sts	0x0105, r25	; 0x800105 <num+0x1>
					index++;
     766:	80 93 04 01 	sts	0x0104, r24	; 0x800104 <num>
     76a:	83 e0       	ldi	r24, 0x03	; 3
     76c:	80 93 81 05 	sts	0x0581, r24	; 0x800581 <index>
				}
				else if(index == 1)
     770:	15 c0       	rjmp	.+42     	; 0x79c <H_tick+0x1a4>
				{
					num = 200;
     772:	81 30       	cpi	r24, 0x01	; 1
     774:	51 f4       	brne	.+20     	; 0x78a <H_tick+0x192>
     776:	88 ec       	ldi	r24, 0xC8	; 200
     778:	90 e0       	ldi	r25, 0x00	; 0
     77a:	90 93 05 01 	sts	0x0105, r25	; 0x800105 <num+0x1>
					index++;
     77e:	80 93 04 01 	sts	0x0104, r24	; 0x800104 <num>
     782:	82 e0       	ldi	r24, 0x02	; 2
     784:	80 93 81 05 	sts	0x0581, r24	; 0x800581 <index>
				}
				else
				{
					num = 50;
     788:	09 c0       	rjmp	.+18     	; 0x79c <H_tick+0x1a4>
     78a:	22 e3       	ldi	r18, 0x32	; 50
     78c:	30 e0       	ldi	r19, 0x00	; 0
     78e:	30 93 05 01 	sts	0x0105, r19	; 0x800105 <num+0x1>
					index++;
     792:	20 93 04 01 	sts	0x0104, r18	; 0x800104 <num>
     796:	8f 5f       	subi	r24, 0xFF	; 255
				}
			}
			
			if(T >= 7)
     798:	80 93 81 05 	sts	0x0581, r24	; 0x800581 <index>
     79c:	80 91 7f 05 	lds	r24, 0x057F	; 0x80057f <T>
     7a0:	90 91 80 05 	lds	r25, 0x0580	; 0x800580 <T+0x1>
     7a4:	87 30       	cpi	r24, 0x07	; 7
			{
				T = 0;
     7a6:	91 05       	cpc	r25, r1
     7a8:	3c f0       	brlt	.+14     	; 0x7b8 <H_tick+0x1c0>
     7aa:	10 92 80 05 	sts	0x0580, r1	; 0x800580 <T+0x1>
     7ae:	10 92 7f 05 	sts	0x057F, r1	; 0x80057f <T>
     7b2:	81 e0       	ldi	r24, 0x01	; 1
			}
			else
			{
				T++;
     7b4:	90 e0       	ldi	r25, 0x00	; 0
     7b6:	08 95       	ret
     7b8:	01 96       	adiw	r24, 0x01	; 1
     7ba:	90 93 80 05 	sts	0x0580, r25	; 0x800580 <T+0x1>
     7be:	80 93 7f 05 	sts	0x057F, r24	; 0x80057f <T>
     7c2:	81 e0       	ldi	r24, 0x01	; 1
     7c4:	90 e0       	ldi	r25, 0x00	; 0
     7c6:	08 95       	ret
     7c8:	81 e0       	ldi	r24, 0x01	; 1
     7ca:	90 e0       	ldi	r25, 0x00	; 0
     7cc:	08 95       	ret
		
		default:
		break;
	}
	return state;
}
     7ce:	81 e0       	ldi	r24, 0x01	; 1
     7d0:	90 e0       	ldi	r25, 0x00	; 0
     7d2:	08 95       	ret

000007d4 <resetShip>:
	// clears all lines in preparation of a new transmission
	PORTB = 0x00;
}

void resetShip()
{
     7d4:	eb e0       	ldi	r30, 0x0B	; 11
     7d6:	f1 e0       	ldi	r31, 0x01	; 1
     7d8:	23 e1       	ldi	r18, 0x13	; 19
     7da:	31 e0       	ldi	r19, 0x01	; 1
	for(int i = 0; i < 8;i++)
	{
		shipY[i] = 0xFF;
     7dc:	8f ef       	ldi	r24, 0xFF	; 255
     7de:	81 93       	st	Z+, r24
	PORTB = 0x00;
}

void resetShip()
{
	for(int i = 0; i < 8;i++)
     7e0:	e2 17       	cp	r30, r18
     7e2:	f3 07       	cpc	r31, r19
     7e4:	e1 f7       	brne	.-8      	; 0x7de <resetShip+0xa>
	{
		shipY[i] = 0xFF;
	}
}
     7e6:	08 95       	ret

000007e8 <positionAsteroid>:

void positionAsteroid()
{
		if(myAsteroid1.Y == 7)
     7e8:	80 91 ca 05 	lds	r24, 0x05CA	; 0x8005ca <myAsteroid1>
     7ec:	90 91 cb 05 	lds	r25, 0x05CB	; 0x8005cb <myAsteroid1+0x1>
     7f0:	87 30       	cpi	r24, 0x07	; 7
     7f2:	91 05       	cpc	r25, r1
     7f4:	51 f4       	brne	.+20     	; 0x80a <positionAsteroid+0x22>
		{
			shipY[myAsteroid1.X] = 0x7C + (shipY[myAsteroid1.X] & 0x03);
     7f6:	e0 91 cc 05 	lds	r30, 0x05CC	; 0x8005cc <myAsteroid1+0x2>
     7fa:	f0 e0       	ldi	r31, 0x00	; 0
     7fc:	e5 5f       	subi	r30, 0xF5	; 245
     7fe:	fe 4f       	sbci	r31, 0xFE	; 254
     800:	80 81       	ld	r24, Z
     802:	83 70       	andi	r24, 0x03	; 3
     804:	84 58       	subi	r24, 0x84	; 132
     806:	80 83       	st	Z, r24
     808:	61 c0       	rjmp	.+194    	; 0x8cc <positionAsteroid+0xe4>
		}
		else if(myAsteroid1.Y == 6)
     80a:	86 30       	cpi	r24, 0x06	; 6
     80c:	91 05       	cpc	r25, r1
     80e:	51 f4       	brne	.+20     	; 0x824 <positionAsteroid+0x3c>
		{
			shipY[myAsteroid1.X] = 0xBC + (shipY[myAsteroid1.X] & 0x03);
     810:	e0 91 cc 05 	lds	r30, 0x05CC	; 0x8005cc <myAsteroid1+0x2>
     814:	f0 e0       	ldi	r31, 0x00	; 0
     816:	e5 5f       	subi	r30, 0xF5	; 245
     818:	fe 4f       	sbci	r31, 0xFE	; 254
     81a:	80 81       	ld	r24, Z
     81c:	83 70       	andi	r24, 0x03	; 3
     81e:	84 54       	subi	r24, 0x44	; 68
     820:	80 83       	st	Z, r24
     822:	54 c0       	rjmp	.+168    	; 0x8cc <positionAsteroid+0xe4>
		}
		else if(myAsteroid1.Y == 5)
     824:	85 30       	cpi	r24, 0x05	; 5
     826:	91 05       	cpc	r25, r1
     828:	51 f4       	brne	.+20     	; 0x83e <positionAsteroid+0x56>
		{
			shipY[myAsteroid1.X] = 0xDC + (shipY[myAsteroid1.X] & 0x03);
     82a:	e0 91 cc 05 	lds	r30, 0x05CC	; 0x8005cc <myAsteroid1+0x2>
     82e:	f0 e0       	ldi	r31, 0x00	; 0
     830:	e5 5f       	subi	r30, 0xF5	; 245
     832:	fe 4f       	sbci	r31, 0xFE	; 254
     834:	80 81       	ld	r24, Z
     836:	83 70       	andi	r24, 0x03	; 3
     838:	84 52       	subi	r24, 0x24	; 36
     83a:	80 83       	st	Z, r24
     83c:	47 c0       	rjmp	.+142    	; 0x8cc <positionAsteroid+0xe4>
		}
		else if(myAsteroid1.Y == 4)
     83e:	84 30       	cpi	r24, 0x04	; 4
     840:	91 05       	cpc	r25, r1
     842:	51 f4       	brne	.+20     	; 0x858 <positionAsteroid+0x70>
		{
			shipY[myAsteroid1.X] = 0xEC + (shipY[myAsteroid1.X] & 0x03);
     844:	e0 91 cc 05 	lds	r30, 0x05CC	; 0x8005cc <myAsteroid1+0x2>
     848:	f0 e0       	ldi	r31, 0x00	; 0
     84a:	e5 5f       	subi	r30, 0xF5	; 245
     84c:	fe 4f       	sbci	r31, 0xFE	; 254
     84e:	80 81       	ld	r24, Z
     850:	83 70       	andi	r24, 0x03	; 3
     852:	84 51       	subi	r24, 0x14	; 20
     854:	80 83       	st	Z, r24
     856:	3a c0       	rjmp	.+116    	; 0x8cc <positionAsteroid+0xe4>
		}
		else if(myAsteroid1.Y == 3)
     858:	83 30       	cpi	r24, 0x03	; 3
     85a:	91 05       	cpc	r25, r1
     85c:	51 f4       	brne	.+20     	; 0x872 <positionAsteroid+0x8a>
		{
			shipY[myAsteroid1.X] = 0xF4 + (shipY[myAsteroid1.X] & 0x03);
     85e:	e0 91 cc 05 	lds	r30, 0x05CC	; 0x8005cc <myAsteroid1+0x2>
     862:	f0 e0       	ldi	r31, 0x00	; 0
     864:	e5 5f       	subi	r30, 0xF5	; 245
     866:	fe 4f       	sbci	r31, 0xFE	; 254
     868:	80 81       	ld	r24, Z
     86a:	83 70       	andi	r24, 0x03	; 3
     86c:	8c 50       	subi	r24, 0x0C	; 12
     86e:	80 83       	st	Z, r24
     870:	2d c0       	rjmp	.+90     	; 0x8cc <positionAsteroid+0xe4>
		}
		else if(myAsteroid1.Y == 2)
     872:	82 30       	cpi	r24, 0x02	; 2
     874:	91 05       	cpc	r25, r1
     876:	51 f4       	brne	.+20     	; 0x88c <positionAsteroid+0xa4>
		{
			shipY[myAsteroid1.X] = 0xF8 + (shipY[myAsteroid1.X] & 0x03);
     878:	e0 91 cc 05 	lds	r30, 0x05CC	; 0x8005cc <myAsteroid1+0x2>
     87c:	f0 e0       	ldi	r31, 0x00	; 0
     87e:	e5 5f       	subi	r30, 0xF5	; 245
     880:	fe 4f       	sbci	r31, 0xFE	; 254
     882:	80 81       	ld	r24, Z
     884:	83 70       	andi	r24, 0x03	; 3
     886:	88 50       	subi	r24, 0x08	; 8
     888:	80 83       	st	Z, r24
     88a:	20 c0       	rjmp	.+64     	; 0x8cc <positionAsteroid+0xe4>
		}
		else if(myAsteroid1.Y == 1)
     88c:	81 30       	cpi	r24, 0x01	; 1
     88e:	91 05       	cpc	r25, r1
     890:	51 f4       	brne	.+20     	; 0x8a6 <positionAsteroid+0xbe>
		{
			shipY[myAsteroid1.X] = 0xFC + (shipY[myAsteroid1.X] & 0x01);
     892:	e0 91 cc 05 	lds	r30, 0x05CC	; 0x8005cc <myAsteroid1+0x2>
     896:	f0 e0       	ldi	r31, 0x00	; 0
     898:	e5 5f       	subi	r30, 0xF5	; 245
     89a:	fe 4f       	sbci	r31, 0xFE	; 254
     89c:	80 81       	ld	r24, Z
     89e:	81 70       	andi	r24, 0x01	; 1
     8a0:	84 50       	subi	r24, 0x04	; 4
     8a2:	80 83       	st	Z, r24
     8a4:	13 c0       	rjmp	.+38     	; 0x8cc <positionAsteroid+0xe4>
		}
		else if(myAsteroid1.Y == 0)
     8a6:	00 97       	sbiw	r24, 0x00	; 0
     8a8:	41 f4       	brne	.+16     	; 0x8ba <positionAsteroid+0xd2>
		{
			shipY[myAsteroid1.X] = 0xFE;
     8aa:	e0 91 cc 05 	lds	r30, 0x05CC	; 0x8005cc <myAsteroid1+0x2>
     8ae:	f0 e0       	ldi	r31, 0x00	; 0
     8b0:	e5 5f       	subi	r30, 0xF5	; 245
     8b2:	fe 4f       	sbci	r31, 0xFE	; 254
     8b4:	8e ef       	ldi	r24, 0xFE	; 254
     8b6:	80 83       	st	Z, r24
     8b8:	09 c0       	rjmp	.+18     	; 0x8cc <positionAsteroid+0xe4>
		}
		else if(myAsteroid1.Y == -1)
     8ba:	01 96       	adiw	r24, 0x01	; 1
     8bc:	39 f4       	brne	.+14     	; 0x8cc <positionAsteroid+0xe4>
		{
			shipY[myAsteroid1.X] = 0xFF;
     8be:	e0 91 cc 05 	lds	r30, 0x05CC	; 0x8005cc <myAsteroid1+0x2>
     8c2:	f0 e0       	ldi	r31, 0x00	; 0
     8c4:	e5 5f       	subi	r30, 0xF5	; 245
     8c6:	fe 4f       	sbci	r31, 0xFE	; 254
     8c8:	8f ef       	ldi	r24, 0xFF	; 255
     8ca:	80 83       	st	Z, r24
		}	

        if(myAsteroid2.Y == 7)
     8cc:	80 91 c6 05 	lds	r24, 0x05C6	; 0x8005c6 <myAsteroid2>
     8d0:	90 91 c7 05 	lds	r25, 0x05C7	; 0x8005c7 <myAsteroid2+0x1>
     8d4:	87 30       	cpi	r24, 0x07	; 7
     8d6:	91 05       	cpc	r25, r1
     8d8:	51 f4       	brne	.+20     	; 0x8ee <positionAsteroid+0x106>
        {
	        shipY[myAsteroid2.X] = 0x7C + (shipY[myAsteroid2.X] & 0x03);
     8da:	e0 91 c8 05 	lds	r30, 0x05C8	; 0x8005c8 <myAsteroid2+0x2>
     8de:	f0 e0       	ldi	r31, 0x00	; 0
     8e0:	e5 5f       	subi	r30, 0xF5	; 245
     8e2:	fe 4f       	sbci	r31, 0xFE	; 254
     8e4:	80 81       	ld	r24, Z
     8e6:	83 70       	andi	r24, 0x03	; 3
     8e8:	84 58       	subi	r24, 0x84	; 132
     8ea:	80 83       	st	Z, r24
     8ec:	08 95       	ret
        }
        else if(myAsteroid2.Y == 6)
     8ee:	86 30       	cpi	r24, 0x06	; 6
     8f0:	91 05       	cpc	r25, r1
     8f2:	51 f4       	brne	.+20     	; 0x908 <positionAsteroid+0x120>
        {
	        shipY[myAsteroid2.X] = 0xBC + (shipY[myAsteroid2.X] & 0x03);
     8f4:	e0 91 c8 05 	lds	r30, 0x05C8	; 0x8005c8 <myAsteroid2+0x2>
     8f8:	f0 e0       	ldi	r31, 0x00	; 0
     8fa:	e5 5f       	subi	r30, 0xF5	; 245
     8fc:	fe 4f       	sbci	r31, 0xFE	; 254
     8fe:	80 81       	ld	r24, Z
     900:	83 70       	andi	r24, 0x03	; 3
     902:	84 54       	subi	r24, 0x44	; 68
     904:	80 83       	st	Z, r24
     906:	08 95       	ret
        }
        else if(myAsteroid2.Y == 5)
     908:	85 30       	cpi	r24, 0x05	; 5
     90a:	91 05       	cpc	r25, r1
     90c:	51 f4       	brne	.+20     	; 0x922 <positionAsteroid+0x13a>
        {
	        shipY[myAsteroid2.X] = 0xDC + (shipY[myAsteroid2.X] & 0x03);
     90e:	e0 91 c8 05 	lds	r30, 0x05C8	; 0x8005c8 <myAsteroid2+0x2>
     912:	f0 e0       	ldi	r31, 0x00	; 0
     914:	e5 5f       	subi	r30, 0xF5	; 245
     916:	fe 4f       	sbci	r31, 0xFE	; 254
     918:	80 81       	ld	r24, Z
     91a:	83 70       	andi	r24, 0x03	; 3
     91c:	84 52       	subi	r24, 0x24	; 36
     91e:	80 83       	st	Z, r24
     920:	08 95       	ret
        }
        else if(myAsteroid2.Y == 4)
     922:	84 30       	cpi	r24, 0x04	; 4
     924:	91 05       	cpc	r25, r1
     926:	51 f4       	brne	.+20     	; 0x93c <positionAsteroid+0x154>
        {
	        shipY[myAsteroid2.X] = 0xEC + (shipY[myAsteroid2.X] & 0x03);
     928:	e0 91 c8 05 	lds	r30, 0x05C8	; 0x8005c8 <myAsteroid2+0x2>
     92c:	f0 e0       	ldi	r31, 0x00	; 0
     92e:	e5 5f       	subi	r30, 0xF5	; 245
     930:	fe 4f       	sbci	r31, 0xFE	; 254
     932:	80 81       	ld	r24, Z
     934:	83 70       	andi	r24, 0x03	; 3
     936:	84 51       	subi	r24, 0x14	; 20
     938:	80 83       	st	Z, r24
     93a:	08 95       	ret
        }
        else if(myAsteroid2.Y == 3)
     93c:	83 30       	cpi	r24, 0x03	; 3
     93e:	91 05       	cpc	r25, r1
     940:	51 f4       	brne	.+20     	; 0x956 <positionAsteroid+0x16e>
        {
	        shipY[myAsteroid2.X] = 0xF4 + (shipY[myAsteroid2.X] & 0x03);
     942:	e0 91 c8 05 	lds	r30, 0x05C8	; 0x8005c8 <myAsteroid2+0x2>
     946:	f0 e0       	ldi	r31, 0x00	; 0
     948:	e5 5f       	subi	r30, 0xF5	; 245
     94a:	fe 4f       	sbci	r31, 0xFE	; 254
     94c:	80 81       	ld	r24, Z
     94e:	83 70       	andi	r24, 0x03	; 3
     950:	8c 50       	subi	r24, 0x0C	; 12
     952:	80 83       	st	Z, r24
     954:	08 95       	ret
        }
        else if(myAsteroid2.Y == 2)
     956:	82 30       	cpi	r24, 0x02	; 2
     958:	91 05       	cpc	r25, r1
     95a:	51 f4       	brne	.+20     	; 0x970 <positionAsteroid+0x188>
        {
	        shipY[myAsteroid2.X] = 0xF8 + (shipY[myAsteroid2.X] & 0x03);
     95c:	e0 91 c8 05 	lds	r30, 0x05C8	; 0x8005c8 <myAsteroid2+0x2>
     960:	f0 e0       	ldi	r31, 0x00	; 0
     962:	e5 5f       	subi	r30, 0xF5	; 245
     964:	fe 4f       	sbci	r31, 0xFE	; 254
     966:	80 81       	ld	r24, Z
     968:	83 70       	andi	r24, 0x03	; 3
     96a:	88 50       	subi	r24, 0x08	; 8
     96c:	80 83       	st	Z, r24
     96e:	08 95       	ret
        }
        else if(myAsteroid2.Y == 1)
     970:	81 30       	cpi	r24, 0x01	; 1
     972:	91 05       	cpc	r25, r1
     974:	51 f4       	brne	.+20     	; 0x98a <positionAsteroid+0x1a2>
        {
	        shipY[myAsteroid2.X] = 0xFC + (shipY[myAsteroid2.X] & 0x01);
     976:	e0 91 c8 05 	lds	r30, 0x05C8	; 0x8005c8 <myAsteroid2+0x2>
     97a:	f0 e0       	ldi	r31, 0x00	; 0
     97c:	e5 5f       	subi	r30, 0xF5	; 245
     97e:	fe 4f       	sbci	r31, 0xFE	; 254
     980:	80 81       	ld	r24, Z
     982:	81 70       	andi	r24, 0x01	; 1
     984:	84 50       	subi	r24, 0x04	; 4
     986:	80 83       	st	Z, r24
     988:	08 95       	ret
        }
        else if(myAsteroid2.Y == 0)
     98a:	00 97       	sbiw	r24, 0x00	; 0
     98c:	41 f4       	brne	.+16     	; 0x99e <positionAsteroid+0x1b6>
        {
	        shipY[myAsteroid2.X] = 0xFE;
     98e:	e0 91 c8 05 	lds	r30, 0x05C8	; 0x8005c8 <myAsteroid2+0x2>
     992:	f0 e0       	ldi	r31, 0x00	; 0
     994:	e5 5f       	subi	r30, 0xF5	; 245
     996:	fe 4f       	sbci	r31, 0xFE	; 254
     998:	8e ef       	ldi	r24, 0xFE	; 254
     99a:	80 83       	st	Z, r24
     99c:	08 95       	ret
        }
        else if(myAsteroid2.Y == -1)
     99e:	01 96       	adiw	r24, 0x01	; 1
     9a0:	39 f4       	brne	.+14     	; 0x9b0 <positionAsteroid+0x1c8>
        {
	        shipY[myAsteroid2.X] = 0xFF;
     9a2:	e0 91 c8 05 	lds	r30, 0x05C8	; 0x8005c8 <myAsteroid2+0x2>
     9a6:	f0 e0       	ldi	r31, 0x00	; 0
     9a8:	e5 5f       	subi	r30, 0xF5	; 245
     9aa:	fe 4f       	sbci	r31, 0xFE	; 254
     9ac:	8f ef       	ldi	r24, 0xFF	; 255
     9ae:	80 83       	st	Z, r24
     9b0:	08 95       	ret

000009b2 <positionShip>:
        }
}

void positionShip()
{
	shipY[myShip.leftLeg] = (shipY[myShip.leftLeg] & 0xFE) + 0;
     9b2:	af eb       	ldi	r26, 0xBF	; 191
     9b4:	b5 e0       	ldi	r27, 0x05	; 5
     9b6:	ec 91       	ld	r30, X
     9b8:	f0 e0       	ldi	r31, 0x00	; 0
     9ba:	e5 5f       	subi	r30, 0xF5	; 245
     9bc:	fe 4f       	sbci	r31, 0xFE	; 254
     9be:	80 81       	ld	r24, Z
     9c0:	8e 7f       	andi	r24, 0xFE	; 254
     9c2:	80 83       	st	Z, r24
	shipY[myShip.front] = (shipY[myShip.front] & 0xFD) + 0;
     9c4:	11 96       	adiw	r26, 0x01	; 1
     9c6:	ec 91       	ld	r30, X
     9c8:	11 97       	sbiw	r26, 0x01	; 1
     9ca:	f0 e0       	ldi	r31, 0x00	; 0
     9cc:	e5 5f       	subi	r30, 0xF5	; 245
     9ce:	fe 4f       	sbci	r31, 0xFE	; 254
     9d0:	80 81       	ld	r24, Z
     9d2:	8d 7f       	andi	r24, 0xFD	; 253
     9d4:	80 83       	st	Z, r24
	shipY[myShip.rightLeg] = (shipY[myShip.rightLeg] & 0xFE) + 0;
     9d6:	12 96       	adiw	r26, 0x02	; 2
     9d8:	ec 91       	ld	r30, X
     9da:	f0 e0       	ldi	r31, 0x00	; 0
     9dc:	e5 5f       	subi	r30, 0xF5	; 245
     9de:	fe 4f       	sbci	r31, 0xFE	; 254
     9e0:	80 81       	ld	r24, Z
     9e2:	8e 7f       	andi	r24, 0xFE	; 254
     9e4:	80 83       	st	Z, r24
     9e6:	08 95       	ret

000009e8 <drawSpace>:
}

void drawSpace()
{

		transmit_data1(resetX);
     9e8:	80 91 87 05 	lds	r24, 0x0587	; 0x800587 <resetX>
     9ec:	c9 dd       	rcall	.-1134   	; 0x580 <transmit_data1>
		transmit_data2(resetY);
     9ee:	80 91 0a 01 	lds	r24, 0x010A	; 0x80010a <resetY>
     9f2:	e1 dd       	rcall	.-1086   	; 0x5b6 <transmit_data2>
	
	
	transmit_data1(shipX[v]);
     9f4:	e0 91 86 05 	lds	r30, 0x0586	; 0x800586 <v>
     9f8:	f0 e0       	ldi	r31, 0x00	; 0
     9fa:	ed 5e       	subi	r30, 0xED	; 237
     9fc:	fe 4f       	sbci	r31, 0xFE	; 254
     9fe:	80 81       	ld	r24, Z
     a00:	bf dd       	rcall	.-1154   	; 0x580 <transmit_data1>
	transmit_data2(shipY[v]);
     a02:	e0 91 86 05 	lds	r30, 0x0586	; 0x800586 <v>
     a06:	f0 e0       	ldi	r31, 0x00	; 0
     a08:	e5 5f       	subi	r30, 0xF5	; 245
     a0a:	fe 4f       	sbci	r31, 0xFE	; 254
     a0c:	80 81       	ld	r24, Z
     a0e:	d3 dd       	rcall	.-1114   	; 0x5b6 <transmit_data2>
	if(v >= 7)
     a10:	80 91 86 05 	lds	r24, 0x0586	; 0x800586 <v>
     a14:	87 30       	cpi	r24, 0x07	; 7
     a16:	18 f0       	brcs	.+6      	; 0xa1e <drawSpace+0x36>
	{
		v = 0;
     a18:	10 92 86 05 	sts	0x0586, r1	; 0x800586 <v>
     a1c:	08 95       	ret
	}
	else
	{
		v++;
     a1e:	8f 5f       	subi	r24, 0xFF	; 255
     a20:	80 93 86 05 	sts	0x0586, r24	; 0x800586 <v>
     a24:	08 95       	ret

00000a26 <A_tick>:
		break;
	}
	return state;
}

int A_tick(int state) {
     a26:	0f 93       	push	r16
     a28:	1f 93       	push	r17
     a2a:	cf 93       	push	r28
     a2c:	df 93       	push	r29
     a2e:	ec 01       	movw	r28, r24
	switch (state){
     a30:	00 97       	sbiw	r24, 0x00	; 0
     a32:	21 f0       	breq	.+8      	; 0xa3c <A_tick+0x16>
     a34:	01 97       	sbiw	r24, 0x01	; 1
     a36:	09 f4       	brne	.+2      	; 0xa3a <A_tick+0x14>
     a38:	5c c0       	rjmp	.+184    	; 0xaf2 <A_tick+0xcc>
     a3a:	65 c0       	rjmp	.+202    	; 0xb06 <A_tick+0xe0>
		case A_Begin:
		if(gameStart == 1)
     a3c:	80 91 84 05 	lds	r24, 0x0584	; 0x800584 <gameStart>
     a40:	81 30       	cpi	r24, 0x01	; 1
     a42:	09 f0       	breq	.+2      	; 0xa46 <A_tick+0x20>
     a44:	bc c1       	rjmp	.+888    	; 0xdbe <A_tick+0x398>
		{
			killedCnt = 20;
     a46:	84 e1       	ldi	r24, 0x14	; 20
     a48:	80 93 06 01 	sts	0x0106, r24	; 0x800106 <killedCnt>
			asteroidsPassed = 6;
     a4c:	86 e0       	ldi	r24, 0x06	; 6
     a4e:	80 93 07 01 	sts	0x0107, r24	; 0x800107 <asteroidsPassed>
			gameStart = 0;
     a52:	10 92 84 05 	sts	0x0584, r1	; 0x800584 <gameStart>
			aCount = 100;
     a56:	84 e6       	ldi	r24, 0x64	; 100
     a58:	90 e0       	ldi	r25, 0x00	; 0
     a5a:	90 93 09 01 	sts	0x0109, r25	; 0x800109 <aCount+0x1>
     a5e:	80 93 08 01 	sts	0x0108, r24	; 0x800108 <aCount>
			InitADC();
			
			myShip.leftLeg = 3;
     a62:	17 dd       	rcall	.-1490   	; 0x492 <InitADC>
     a64:	ef eb       	ldi	r30, 0xBF	; 191
     a66:	f5 e0       	ldi	r31, 0x05	; 5
     a68:	83 e0       	ldi	r24, 0x03	; 3
			myShip.rightLeg = 5;
     a6a:	80 83       	st	Z, r24
     a6c:	85 e0       	ldi	r24, 0x05	; 5
			myShip.front = 4;
			resetShip();
     a6e:	82 83       	std	Z+2, r24	; 0x02
			positionShip();
     a70:	84 e0       	ldi	r24, 0x04	; 4
     a72:	81 83       	std	Z+1, r24	; 0x01
			
			myAsteroid1.X = rand() % 8;
     a74:	af de       	rcall	.-674    	; 0x7d4 <resetShip>
     a76:	9d df       	rcall	.-198    	; 0x9b2 <positionShip>
     a78:	0e 94 8f 10 	call	0x211e	; 0x211e <rand>
     a7c:	87 70       	andi	r24, 0x07	; 7
     a7e:	90 78       	andi	r25, 0x80	; 128
     a80:	99 23       	and	r25, r25
     a82:	24 f4       	brge	.+8      	; 0xa8c <A_tick+0x66>
     a84:	01 97       	sbiw	r24, 0x01	; 1
     a86:	88 6f       	ori	r24, 0xF8	; 248
     a88:	9f 6f       	ori	r25, 0xFF	; 255
     a8a:	01 96       	adiw	r24, 0x01	; 1
			myAsteroid1.Y = 12;
     a8c:	80 93 cc 05 	sts	0x05CC, r24	; 0x8005cc <myAsteroid1+0x2>
     a90:	8c e0       	ldi	r24, 0x0C	; 12
     a92:	90 e0       	ldi	r25, 0x00	; 0
     a94:	90 93 cb 05 	sts	0x05CB, r25	; 0x8005cb <myAsteroid1+0x1>
			myAsteroid2.X = rand() % 8;
     a98:	80 93 ca 05 	sts	0x05CA, r24	; 0x8005ca <myAsteroid1>
     a9c:	0e 94 8f 10 	call	0x211e	; 0x211e <rand>
     aa0:	87 70       	andi	r24, 0x07	; 7
     aa2:	90 78       	andi	r25, 0x80	; 128
     aa4:	99 23       	and	r25, r25
     aa6:	24 f4       	brge	.+8      	; 0xab0 <A_tick+0x8a>
     aa8:	01 97       	sbiw	r24, 0x01	; 1
     aaa:	88 6f       	ori	r24, 0xF8	; 248
     aac:	9f 6f       	ori	r25, 0xFF	; 255
     aae:	01 96       	adiw	r24, 0x01	; 1
			while(myAsteroid1.X == myAsteroid2.X)
     ab0:	80 93 c8 05 	sts	0x05C8, r24	; 0x8005c8 <myAsteroid2+0x2>
     ab4:	90 91 cc 05 	lds	r25, 0x05CC	; 0x8005cc <myAsteroid1+0x2>
			{
				myAsteroid2.X = rand() % 8;
     ab8:	98 13       	cpse	r25, r24
     aba:	13 c0       	rjmp	.+38     	; 0xae2 <A_tick+0xbc>
			positionShip();
			
			myAsteroid1.X = rand() % 8;
			myAsteroid1.Y = 12;
			myAsteroid2.X = rand() % 8;
			while(myAsteroid1.X == myAsteroid2.X)
     abc:	06 ec       	ldi	r16, 0xC6	; 198
     abe:	15 e0       	ldi	r17, 0x05	; 5
			{
				myAsteroid2.X = rand() % 8;
     ac0:	ca ec       	ldi	r28, 0xCA	; 202
     ac2:	d5 e0       	ldi	r29, 0x05	; 5
     ac4:	0e 94 8f 10 	call	0x211e	; 0x211e <rand>
     ac8:	87 70       	andi	r24, 0x07	; 7
     aca:	90 78       	andi	r25, 0x80	; 128
     acc:	99 23       	and	r25, r25
     ace:	24 f4       	brge	.+8      	; 0xad8 <A_tick+0xb2>
     ad0:	01 97       	sbiw	r24, 0x01	; 1
     ad2:	88 6f       	ori	r24, 0xF8	; 248
     ad4:	9f 6f       	ori	r25, 0xFF	; 255
     ad6:	01 96       	adiw	r24, 0x01	; 1
			positionShip();
			
			myAsteroid1.X = rand() % 8;
			myAsteroid1.Y = 12;
			myAsteroid2.X = rand() % 8;
			while(myAsteroid1.X == myAsteroid2.X)
     ad8:	f8 01       	movw	r30, r16
     ada:	82 83       	std	Z+2, r24	; 0x02
     adc:	9a 81       	ldd	r25, Y+2	; 0x02
			{
				myAsteroid2.X = rand() % 8;
			}
			myAsteroid2.Y = 15;
     ade:	98 17       	cp	r25, r24
     ae0:	89 f3       	breq	.-30     	; 0xac4 <A_tick+0x9e>
     ae2:	8f e0       	ldi	r24, 0x0F	; 15
     ae4:	90 e0       	ldi	r25, 0x00	; 0
     ae6:	90 93 c7 05 	sts	0x05C7, r25	; 0x8005c7 <myAsteroid2+0x1>
			positionAsteroid();
     aea:	80 93 c6 05 	sts	0x05C6, r24	; 0x8005c6 <myAsteroid2>
			state = A_inGame;
		}
		else
		{
			state = A_Begin;
     aee:	7c de       	rcall	.-776    	; 0x7e8 <positionAsteroid>
     af0:	10 c0       	rjmp	.+32     	; 0xb12 <A_tick+0xec>
     af2:	91 e0       	ldi	r25, 0x01	; 1
     af4:	80 e0       	ldi	r24, 0x00	; 0
     af6:	20 91 84 05 	lds	r18, 0x0584	; 0x800584 <gameStart>
     afa:	21 30       	cpi	r18, 0x01	; 1
     afc:	09 f4       	brne	.+2      	; 0xb00 <A_tick+0xda>
     afe:	90 e0       	ldi	r25, 0x00	; 0
     b00:	c9 2f       	mov	r28, r25
			state = A_inGame;
		}
		break;
		
		default:
		state = A_Begin;
     b02:	d8 2f       	mov	r29, r24
     b04:	02 c0       	rjmp	.+4      	; 0xb0a <A_tick+0xe4>
		break;
	}
	
	switch (state){
     b06:	c0 e0       	ldi	r28, 0x00	; 0
     b08:	d0 e0       	ldi	r29, 0x00	; 0
     b0a:	c1 30       	cpi	r28, 0x01	; 1
     b0c:	d1 05       	cpc	r29, r1
		case A_Begin:
		break;
		
		case A_inGame:
		if(aCount <= 0)
     b0e:	09 f0       	breq	.+2      	; 0xb12 <A_tick+0xec>
     b10:	56 c1       	rjmp	.+684    	; 0xdbe <A_tick+0x398>
     b12:	80 91 08 01 	lds	r24, 0x0108	; 0x800108 <aCount>
     b16:	90 91 09 01 	lds	r25, 0x0109	; 0x800109 <aCount+0x1>
		{
			x = (unsigned char) readadc(0);
     b1a:	00 97       	sbiw	r24, 0x00	; 0
     b1c:	09 f0       	breq	.+2      	; 0xb20 <A_tick+0xfa>
     b1e:	38 c1       	rjmp	.+624    	; 0xd90 <A_tick+0x36a>
     b20:	80 e0       	ldi	r24, 0x00	; 0
     b22:	c4 dc       	rcall	.-1656   	; 0x4ac <readadc>
     b24:	99 27       	eor	r25, r25
     b26:	90 93 b9 05 	sts	0x05B9, r25	; 0x8005b9 <x+0x1>
			y = (unsigned char)readadc(1);
     b2a:	80 93 b8 05 	sts	0x05B8, r24	; 0x8005b8 <x>
     b2e:	81 e0       	ldi	r24, 0x01	; 1
     b30:	bd dc       	rcall	.-1670   	; 0x4ac <readadc>
     b32:	99 27       	eor	r25, r25
     b34:	90 93 9e 05 	sts	0x059E, r25	; 0x80059e <y+0x1>
			if(x > 210)
     b38:	80 93 9d 05 	sts	0x059D, r24	; 0x80059d <y>
     b3c:	80 91 b8 05 	lds	r24, 0x05B8	; 0x8005b8 <x>
     b40:	90 91 b9 05 	lds	r25, 0x05B9	; 0x8005b9 <x+0x1>
     b44:	83 3d       	cpi	r24, 0xD3	; 211
			{
				if(myShip.rightLeg < 7)
     b46:	91 05       	cpc	r25, r1
     b48:	a0 f0       	brcs	.+40     	; 0xb72 <A_tick+0x14c>
     b4a:	80 91 c1 05 	lds	r24, 0x05C1	; 0x8005c1 <myShip+0x2>
				{
					shipMoved = 1;
     b4e:	87 30       	cpi	r24, 0x07	; 7
     b50:	28 f5       	brcc	.+74     	; 0xb9c <A_tick+0x176>
     b52:	91 e0       	ldi	r25, 0x01	; 1
					myShip.front++;
     b54:	90 93 85 05 	sts	0x0585, r25	; 0x800585 <shipMoved>
     b58:	ef eb       	ldi	r30, 0xBF	; 191
					myShip.rightLeg++;
     b5a:	f5 e0       	ldi	r31, 0x05	; 5
					myShip.leftLeg++;
     b5c:	91 81       	ldd	r25, Z+1	; 0x01
     b5e:	9f 5f       	subi	r25, 0xFF	; 255
     b60:	91 83       	std	Z+1, r25	; 0x01
					resetShip();
     b62:	8f 5f       	subi	r24, 0xFF	; 255
     b64:	82 83       	std	Z+2, r24	; 0x02
					positionShip();
     b66:	80 81       	ld	r24, Z
     b68:	8f 5f       	subi	r24, 0xFF	; 255
     b6a:	80 83       	st	Z, r24
				}
				//right
			}
			else if (x < 40)
     b6c:	33 de       	rcall	.-922    	; 0x7d4 <resetShip>
     b6e:	21 df       	rcall	.-446    	; 0x9b2 <positionShip>
			{
				if(myShip.leftLeg > 0)
     b70:	15 c0       	rjmp	.+42     	; 0xb9c <A_tick+0x176>
     b72:	88 97       	sbiw	r24, 0x28	; 40
     b74:	98 f4       	brcc	.+38     	; 0xb9c <A_tick+0x176>
     b76:	80 91 bf 05 	lds	r24, 0x05BF	; 0x8005bf <myShip>
				{
					shipMoved = 1;
     b7a:	88 23       	and	r24, r24
     b7c:	79 f0       	breq	.+30     	; 0xb9c <A_tick+0x176>
					myShip.front--;
     b7e:	91 e0       	ldi	r25, 0x01	; 1
     b80:	90 93 85 05 	sts	0x0585, r25	; 0x800585 <shipMoved>
					myShip.rightLeg--;
     b84:	ef eb       	ldi	r30, 0xBF	; 191
     b86:	f5 e0       	ldi	r31, 0x05	; 5
     b88:	91 81       	ldd	r25, Z+1	; 0x01
					myShip.leftLeg--;
     b8a:	91 50       	subi	r25, 0x01	; 1
     b8c:	91 83       	std	Z+1, r25	; 0x01
					resetShip();
     b8e:	92 81       	ldd	r25, Z+2	; 0x02
     b90:	91 50       	subi	r25, 0x01	; 1
					positionShip();
     b92:	92 83       	std	Z+2, r25	; 0x02
     b94:	81 50       	subi	r24, 0x01	; 1
				}
			}
			if(myAsteroid1.Y < -1)
     b96:	80 83       	st	Z, r24
     b98:	1d de       	rcall	.-966    	; 0x7d4 <resetShip>
     b9a:	0b df       	rcall	.-490    	; 0x9b2 <positionShip>
     b9c:	80 91 ca 05 	lds	r24, 0x05CA	; 0x8005ca <myAsteroid1>
     ba0:	90 91 cb 05 	lds	r25, 0x05CB	; 0x8005cb <myAsteroid1+0x1>
     ba4:	8f 3f       	cpi	r24, 0xFF	; 255
			{
				if(asteroidsPassed <= 2)
     ba6:	ff ef       	ldi	r31, 0xFF	; 255
     ba8:	9f 07       	cpc	r25, r31
     baa:	44 f5       	brge	.+80     	; 0xbfc <A_tick+0x1d6>
     bac:	80 91 07 01 	lds	r24, 0x0107	; 0x800107 <asteroidsPassed>
				{
					myAsteroid1.Y = 50;
     bb0:	83 30       	cpi	r24, 0x03	; 3
     bb2:	60 f4       	brcc	.+24     	; 0xbcc <A_tick+0x1a6>
     bb4:	ea ec       	ldi	r30, 0xCA	; 202
     bb6:	f5 e0       	ldi	r31, 0x05	; 5
     bb8:	22 e3       	ldi	r18, 0x32	; 50
					myAsteroid1.X = 8;
     bba:	30 e0       	ldi	r19, 0x00	; 0
     bbc:	31 83       	std	Z+1, r19	; 0x01
					asteroidsPassed--;
     bbe:	20 83       	st	Z, r18
     bc0:	98 e0       	ldi	r25, 0x08	; 8
     bc2:	92 83       	std	Z+2, r25	; 0x02
     bc4:	81 50       	subi	r24, 0x01	; 1
				}
				else
				{
					myAsteroid1.Y = 10;
     bc6:	80 93 07 01 	sts	0x0107, r24	; 0x800107 <asteroidsPassed>
     bca:	1d c0       	rjmp	.+58     	; 0xc06 <A_tick+0x1e0>
     bcc:	8a e0       	ldi	r24, 0x0A	; 10
     bce:	90 e0       	ldi	r25, 0x00	; 0
     bd0:	90 93 cb 05 	sts	0x05CB, r25	; 0x8005cb <myAsteroid1+0x1>
					myAsteroid1.X = rand() % 8;
     bd4:	80 93 ca 05 	sts	0x05CA, r24	; 0x8005ca <myAsteroid1>
     bd8:	0e 94 8f 10 	call	0x211e	; 0x211e <rand>
     bdc:	87 70       	andi	r24, 0x07	; 7
     bde:	90 78       	andi	r25, 0x80	; 128
     be0:	99 23       	and	r25, r25
     be2:	24 f4       	brge	.+8      	; 0xbec <A_tick+0x1c6>
     be4:	01 97       	sbiw	r24, 0x01	; 1
     be6:	88 6f       	ori	r24, 0xF8	; 248
     be8:	9f 6f       	ori	r25, 0xFF	; 255
					asteroidsPassed--;
     bea:	01 96       	adiw	r24, 0x01	; 1
     bec:	80 93 cc 05 	sts	0x05CC, r24	; 0x8005cc <myAsteroid1+0x2>
     bf0:	80 91 07 01 	lds	r24, 0x0107	; 0x800107 <asteroidsPassed>
     bf4:	81 50       	subi	r24, 0x01	; 1
				}
			}
			else
			{
				myAsteroid1.Y--;
     bf6:	80 93 07 01 	sts	0x0107, r24	; 0x800107 <asteroidsPassed>
     bfa:	05 c0       	rjmp	.+10     	; 0xc06 <A_tick+0x1e0>
     bfc:	01 97       	sbiw	r24, 0x01	; 1
     bfe:	90 93 cb 05 	sts	0x05CB, r25	; 0x8005cb <myAsteroid1+0x1>
			}
			
			if(myAsteroid2.Y < -1)
     c02:	80 93 ca 05 	sts	0x05CA, r24	; 0x8005ca <myAsteroid1>
     c06:	80 91 c6 05 	lds	r24, 0x05C6	; 0x8005c6 <myAsteroid2>
     c0a:	90 91 c7 05 	lds	r25, 0x05C7	; 0x8005c7 <myAsteroid2+0x1>
     c0e:	8f 3f       	cpi	r24, 0xFF	; 255
			{
				if(asteroidsPassed <= 1)
     c10:	2f ef       	ldi	r18, 0xFF	; 255
     c12:	92 07       	cpc	r25, r18
     c14:	9c f5       	brge	.+102    	; 0xc7c <A_tick+0x256>
     c16:	80 91 07 01 	lds	r24, 0x0107	; 0x800107 <asteroidsPassed>
				{
					myAsteroid2.Y = 50;
     c1a:	82 30       	cpi	r24, 0x02	; 2
     c1c:	60 f4       	brcc	.+24     	; 0xc36 <A_tick+0x210>
     c1e:	e6 ec       	ldi	r30, 0xC6	; 198
     c20:	f5 e0       	ldi	r31, 0x05	; 5
     c22:	22 e3       	ldi	r18, 0x32	; 50
					myAsteroid2.X = 8;
     c24:	30 e0       	ldi	r19, 0x00	; 0
     c26:	31 83       	std	Z+1, r19	; 0x01
					asteroidsPassed--;
     c28:	20 83       	st	Z, r18
     c2a:	98 e0       	ldi	r25, 0x08	; 8
     c2c:	92 83       	std	Z+2, r25	; 0x02
     c2e:	81 50       	subi	r24, 0x01	; 1
				}
				else
				{
					myAsteroid2.Y = 10;
     c30:	80 93 07 01 	sts	0x0107, r24	; 0x800107 <asteroidsPassed>
     c34:	28 c0       	rjmp	.+80     	; 0xc86 <A_tick+0x260>
     c36:	e6 ec       	ldi	r30, 0xC6	; 198
     c38:	f5 e0       	ldi	r31, 0x05	; 5
     c3a:	8a e0       	ldi	r24, 0x0A	; 10
					while(myAsteroid1.X == myAsteroid2.X)
     c3c:	90 e0       	ldi	r25, 0x00	; 0
     c3e:	91 83       	std	Z+1, r25	; 0x01
     c40:	80 83       	st	Z, r24
     c42:	90 91 cc 05 	lds	r25, 0x05CC	; 0x8005cc <myAsteroid1+0x2>
					{
						myAsteroid2.X = rand() % 8;
     c46:	82 81       	ldd	r24, Z+2	; 0x02
					asteroidsPassed--;
				}
				else
				{
					myAsteroid2.Y = 10;
					while(myAsteroid1.X == myAsteroid2.X)
     c48:	98 13       	cpse	r25, r24
     c4a:	12 c0       	rjmp	.+36     	; 0xc70 <A_tick+0x24a>
					{
						myAsteroid2.X = rand() % 8;
     c4c:	8f 01       	movw	r16, r30
     c4e:	ca ec       	ldi	r28, 0xCA	; 202
     c50:	d5 e0       	ldi	r29, 0x05	; 5
     c52:	0e 94 8f 10 	call	0x211e	; 0x211e <rand>
     c56:	87 70       	andi	r24, 0x07	; 7
     c58:	90 78       	andi	r25, 0x80	; 128
     c5a:	99 23       	and	r25, r25
     c5c:	24 f4       	brge	.+8      	; 0xc66 <A_tick+0x240>
     c5e:	01 97       	sbiw	r24, 0x01	; 1
     c60:	88 6f       	ori	r24, 0xF8	; 248
     c62:	9f 6f       	ori	r25, 0xFF	; 255
					asteroidsPassed--;
				}
				else
				{
					myAsteroid2.Y = 10;
					while(myAsteroid1.X == myAsteroid2.X)
     c64:	01 96       	adiw	r24, 0x01	; 1
     c66:	f8 01       	movw	r30, r16
     c68:	82 83       	std	Z+2, r24	; 0x02
					{
						myAsteroid2.X = rand() % 8;
					}
					asteroidsPassed--;
     c6a:	9a 81       	ldd	r25, Y+2	; 0x02
     c6c:	98 17       	cp	r25, r24
     c6e:	89 f3       	breq	.-30     	; 0xc52 <A_tick+0x22c>
     c70:	80 91 07 01 	lds	r24, 0x0107	; 0x800107 <asteroidsPassed>
				}
			}
			else
			{
				myAsteroid2.Y--;
     c74:	81 50       	subi	r24, 0x01	; 1
     c76:	80 93 07 01 	sts	0x0107, r24	; 0x800107 <asteroidsPassed>
     c7a:	05 c0       	rjmp	.+10     	; 0xc86 <A_tick+0x260>
     c7c:	01 97       	sbiw	r24, 0x01	; 1
			}
			positionAsteroid();
     c7e:	90 93 c7 05 	sts	0x05C7, r25	; 0x8005c7 <myAsteroid2+0x1>
			if(myAsteroid1.X == myShip.leftLeg)
     c82:	80 93 c6 05 	sts	0x05C6, r24	; 0x8005c6 <myAsteroid2>
     c86:	b0 dd       	rcall	.-1184   	; 0x7e8 <positionAsteroid>
     c88:	80 91 cc 05 	lds	r24, 0x05CC	; 0x8005cc <myAsteroid1+0x2>
     c8c:	20 91 bf 05 	lds	r18, 0x05BF	; 0x8005bf <myShip>
			{
				if(myAsteroid1.Y == 0)
     c90:	82 13       	cpse	r24, r18
     c92:	12 c0       	rjmp	.+36     	; 0xcb8 <A_tick+0x292>
     c94:	40 91 ca 05 	lds	r20, 0x05CA	; 0x8005ca <myAsteroid1>
     c98:	50 91 cb 05 	lds	r21, 0x05CB	; 0x8005cb <myAsteroid1+0x1>
				{
					killed = 1;
     c9c:	45 2b       	or	r20, r21
     c9e:	61 f4       	brne	.+24     	; 0xcb8 <A_tick+0x292>
					gameStart = 0;
     ca0:	91 e0       	ldi	r25, 0x01	; 1
     ca2:	90 93 a3 05 	sts	0x05A3, r25	; 0x8005a3 <killed>
				}
			}
			if(myAsteroid1.X == myShip.front)
     ca6:	10 92 84 05 	sts	0x0584, r1	; 0x800584 <gameStart>
				{
					killed = 1;
					gameStart = 0;
				}
			}
			if(myAsteroid1.X == myShip.rightLeg)
     caa:	ef eb       	ldi	r30, 0xBF	; 191
     cac:	f5 e0       	ldi	r31, 0x05	; 5
     cae:	31 81       	ldd	r19, Z+1	; 0x01
     cb0:	92 81       	ldd	r25, Z+2	; 0x02
				{
					killed = 1;
					gameStart = 0;
				}
			}
			if(myAsteroid1.X == myShip.front)
     cb2:	89 13       	cpse	r24, r25
     cb4:	28 c0       	rjmp	.+80     	; 0xd06 <A_tick+0x2e0>
     cb6:	1f c0       	rjmp	.+62     	; 0xcf6 <A_tick+0x2d0>
     cb8:	30 91 c0 05 	lds	r19, 0x05C0	; 0x8005c0 <myShip+0x1>
			{
				if(myAsteroid1.Y == 1)
     cbc:	83 13       	cpse	r24, r19
     cbe:	11 c0       	rjmp	.+34     	; 0xce2 <A_tick+0x2bc>
     cc0:	40 91 ca 05 	lds	r20, 0x05CA	; 0x8005ca <myAsteroid1>
     cc4:	50 91 cb 05 	lds	r21, 0x05CB	; 0x8005cb <myAsteroid1+0x1>
				{
					killed = 1;
     cc8:	41 30       	cpi	r20, 0x01	; 1
     cca:	51 05       	cpc	r21, r1
     ccc:	49 f4       	brne	.+18     	; 0xce0 <A_tick+0x2ba>
					gameStart = 0;
     cce:	91 e0       	ldi	r25, 0x01	; 1
     cd0:	90 93 a3 05 	sts	0x05A3, r25	; 0x8005a3 <killed>
				}
			}
			if(myAsteroid1.X == myShip.rightLeg)
     cd4:	10 92 84 05 	sts	0x0584, r1	; 0x800584 <gameStart>
				{
					killed = 1;
					gameStart = 0;
				}
			}
			if(myAsteroid1.X == myShip.front)
     cd8:	90 91 c1 05 	lds	r25, 0x05C1	; 0x8005c1 <myShip+0x2>
				{
					killed = 1;
					gameStart = 0;
				}
			}
			if(myAsteroid1.X == myShip.rightLeg)
     cdc:	38 2f       	mov	r19, r24
     cde:	13 c0       	rjmp	.+38     	; 0xd06 <A_tick+0x2e0>
     ce0:	38 2f       	mov	r19, r24
     ce2:	90 91 c1 05 	lds	r25, 0x05C1	; 0x8005c1 <myShip+0x2>
			{
				if(myAsteroid1.Y == 0)
     ce6:	89 13       	cpse	r24, r25
     ce8:	0e c0       	rjmp	.+28     	; 0xd06 <A_tick+0x2e0>
     cea:	40 91 ca 05 	lds	r20, 0x05CA	; 0x8005ca <myAsteroid1>
     cee:	50 91 cb 05 	lds	r21, 0x05CB	; 0x8005cb <myAsteroid1+0x1>
				{
					killed = 1;
     cf2:	45 2b       	or	r20, r21
     cf4:	39 f4       	brne	.+14     	; 0xd04 <A_tick+0x2de>
					gameStart = 0;
     cf6:	91 e0       	ldi	r25, 0x01	; 1
     cf8:	90 93 a3 05 	sts	0x05A3, r25	; 0x8005a3 <killed>
				{
					killed = 1;
					gameStart = 0;
				}
			}
			if(myAsteroid1.X == myShip.rightLeg)
     cfc:	10 92 84 05 	sts	0x0584, r1	; 0x800584 <gameStart>
					killed = 1;
					gameStart = 0;
				}
			}
			
			if(myAsteroid2.X == myShip.leftLeg)
     d00:	98 2f       	mov	r25, r24
     d02:	01 c0       	rjmp	.+2      	; 0xd06 <A_tick+0x2e0>
     d04:	98 2f       	mov	r25, r24
     d06:	80 91 c8 05 	lds	r24, 0x05C8	; 0x8005c8 <myAsteroid2+0x2>
			{
				if(myAsteroid2.Y == 0)
     d0a:	28 13       	cpse	r18, r24
     d0c:	10 c0       	rjmp	.+32     	; 0xd2e <A_tick+0x308>
     d0e:	40 91 c6 05 	lds	r20, 0x05C6	; 0x8005c6 <myAsteroid2>
     d12:	50 91 c7 05 	lds	r21, 0x05C7	; 0x8005c7 <myAsteroid2+0x1>
				{
					killed = 1;
     d16:	45 2b       	or	r20, r21
     d18:	51 f4       	brne	.+20     	; 0xd2e <A_tick+0x308>
					gameStart = 0;
     d1a:	21 e0       	ldi	r18, 0x01	; 1
     d1c:	20 93 a3 05 	sts	0x05A3, r18	; 0x8005a3 <killed>
				{
					killed = 1;
					gameStart = 0;
				}
			}
			if(myAsteroid2.X == myShip.rightLeg)
     d20:	10 92 84 05 	sts	0x0584, r1	; 0x800584 <gameStart>
     d24:	89 17       	cp	r24, r25
     d26:	e1 f0       	breq	.+56     	; 0xd60 <A_tick+0x33a>
				{
					killed = 1;
					gameStart = 0;
				}
			}
			if(myAsteroid2.X == myShip.front)
     d28:	c1 e0       	ldi	r28, 0x01	; 1
     d2a:	d0 e0       	ldi	r29, 0x00	; 0
			{
				if(myAsteroid2.Y == 1)
     d2c:	26 c0       	rjmp	.+76     	; 0xd7a <A_tick+0x354>
     d2e:	83 13       	cpse	r24, r19
     d30:	0f c0       	rjmp	.+30     	; 0xd50 <A_tick+0x32a>
     d32:	20 91 c6 05 	lds	r18, 0x05C6	; 0x8005c6 <myAsteroid2>
     d36:	30 91 c7 05 	lds	r19, 0x05C7	; 0x8005c7 <myAsteroid2+0x1>
				{
					killed = 1;
     d3a:	21 30       	cpi	r18, 0x01	; 1
     d3c:	31 05       	cpc	r19, r1
     d3e:	41 f4       	brne	.+16     	; 0xd50 <A_tick+0x32a>
					gameStart = 0;
     d40:	81 e0       	ldi	r24, 0x01	; 1
     d42:	80 93 a3 05 	sts	0x05A3, r24	; 0x8005a3 <killed>
     d46:	10 92 84 05 	sts	0x0584, r1	; 0x800584 <gameStart>
				}
			}
			if(myAsteroid2.X == myShip.rightLeg)
     d4a:	c1 e0       	ldi	r28, 0x01	; 1
     d4c:	d0 e0       	ldi	r29, 0x00	; 0
			{
				if(myAsteroid2.Y == 0)
     d4e:	15 c0       	rjmp	.+42     	; 0xd7a <A_tick+0x354>
     d50:	89 13       	cpse	r24, r25
     d52:	0e c0       	rjmp	.+28     	; 0xd70 <A_tick+0x34a>
     d54:	80 91 c6 05 	lds	r24, 0x05C6	; 0x8005c6 <myAsteroid2>
     d58:	90 91 c7 05 	lds	r25, 0x05C7	; 0x8005c7 <myAsteroid2+0x1>
				{
					killed = 1;
     d5c:	89 2b       	or	r24, r25
     d5e:	59 f4       	brne	.+22     	; 0xd76 <A_tick+0x350>
					state = A_Begin;
					gameStart = 0;
     d60:	81 e0       	ldi	r24, 0x01	; 1
     d62:	80 93 a3 05 	sts	0x05A3, r24	; 0x8005a3 <killed>
			if(myAsteroid2.X == myShip.rightLeg)
			{
				if(myAsteroid2.Y == 0)
				{
					killed = 1;
					state = A_Begin;
     d66:	10 92 84 05 	sts	0x0584, r1	; 0x800584 <gameStart>
     d6a:	c0 e0       	ldi	r28, 0x00	; 0
     d6c:	d0 e0       	ldi	r29, 0x00	; 0
     d6e:	05 c0       	rjmp	.+10     	; 0xd7a <A_tick+0x354>
     d70:	c1 e0       	ldi	r28, 0x01	; 1
     d72:	d0 e0       	ldi	r29, 0x00	; 0
					gameStart = 0;
				}
			}
			aCount = 100 - speed;//4
     d74:	02 c0       	rjmp	.+4      	; 0xd7a <A_tick+0x354>
     d76:	c1 e0       	ldi	r28, 0x01	; 1
     d78:	d0 e0       	ldi	r29, 0x00	; 0
     d7a:	20 91 82 05 	lds	r18, 0x0582	; 0x800582 <speed>
     d7e:	84 e6       	ldi	r24, 0x64	; 100
     d80:	90 e0       	ldi	r25, 0x00	; 0
     d82:	82 1b       	sub	r24, r18
     d84:	91 09       	sbc	r25, r1
     d86:	90 93 09 01 	sts	0x0109, r25	; 0x800109 <aCount+0x1>
		}
		else
		{
			aCount--;
     d8a:	80 93 08 01 	sts	0x0108, r24	; 0x800108 <aCount>
     d8e:	07 c0       	rjmp	.+14     	; 0xd9e <A_tick+0x378>
     d90:	01 97       	sbiw	r24, 0x01	; 1
     d92:	90 93 09 01 	sts	0x0109, r25	; 0x800109 <aCount+0x1>
		}
		drawSpace();
     d96:	80 93 08 01 	sts	0x0108, r24	; 0x800108 <aCount>
		
		if(asteroidsPassed <= 0)
     d9a:	c1 e0       	ldi	r28, 0x01	; 1
		{
			aCompleted = 1;
     d9c:	d0 e0       	ldi	r29, 0x00	; 0
     d9e:	24 de       	rcall	.-952    	; 0x9e8 <drawSpace>
     da0:	80 91 07 01 	lds	r24, 0x0107	; 0x800107 <asteroidsPassed>
		}
		
		
		if(killed == 1)
     da4:	81 11       	cpse	r24, r1
     da6:	03 c0       	rjmp	.+6      	; 0xdae <A_tick+0x388>
     da8:	81 e0       	ldi	r24, 0x01	; 1
		{
			transmit_data1(0xFF);
     daa:	80 93 83 05 	sts	0x0583, r24	; 0x800583 <aCompleted>
     dae:	80 91 a3 05 	lds	r24, 0x05A3	; 0x8005a3 <killed>
			transmit_data2(0);
     db2:	81 30       	cpi	r24, 0x01	; 1
     db4:	21 f4       	brne	.+8      	; 0xdbe <A_tick+0x398>
		
		default:
		break;
	}
	return state;
}
     db6:	8f ef       	ldi	r24, 0xFF	; 255
     db8:	e3 db       	rcall	.-2106   	; 0x580 <transmit_data1>
     dba:	80 e0       	ldi	r24, 0x00	; 0
     dbc:	fc db       	rcall	.-2056   	; 0x5b6 <transmit_data2>
     dbe:	ce 01       	movw	r24, r28
     dc0:	df 91       	pop	r29
     dc2:	cf 91       	pop	r28
     dc4:	1f 91       	pop	r17
     dc6:	0f 91       	pop	r16
     dc8:	08 95       	ret

00000dca <clearKeyCode>:
	}
}

void clearKeyCode()
{
	keyPadEntry[0] = '-';
     dca:	e7 e2       	ldi	r30, 0x27	; 39
     dcc:	f1 e0       	ldi	r31, 0x01	; 1
     dce:	8d e2       	ldi	r24, 0x2D	; 45
     dd0:	80 83       	st	Z, r24
	keyPadEntry[1] = '-';
     dd2:	81 83       	std	Z+1, r24	; 0x01
	keyPadEntry[2] = '-';
     dd4:	82 83       	std	Z+2, r24	; 0x02
	keyPadEntry[3] = '-';
     dd6:	83 83       	std	Z+3, r24	; 0x03
     dd8:	08 95       	ret

00000dda <randomKeyCode>:
}

void randomKeyCode()
{
     dda:	9f 92       	push	r9
     ddc:	af 92       	push	r10
     dde:	bf 92       	push	r11
     de0:	cf 92       	push	r12
     de2:	df 92       	push	r13
     de4:	ef 92       	push	r14
     de6:	ff 92       	push	r15
     de8:	0f 93       	push	r16
     dea:	1f 93       	push	r17
     dec:	cf 93       	push	r28
     dee:	df 93       	push	r29
	unsigned char temp = rand() % 10;
     df0:	0e 94 8f 10 	call	0x211e	; 0x211e <rand>
     df4:	c3 e2       	ldi	r28, 0x23	; 35
     df6:	d1 e0       	ldi	r29, 0x01	; 1
     df8:	0f 2e       	mov	r0, r31
     dfa:	f7 e2       	ldi	r31, 0x27	; 39
     dfc:	ef 2e       	mov	r14, r31
     dfe:	f1 e0       	ldi	r31, 0x01	; 1
     e00:	ff 2e       	mov	r15, r31
     e02:	f0 2d       	mov	r31, r0
	
	for(int i = 0; i < 4; i++)
	{
		temp = rand() % 10;
     e04:	0a e0       	ldi	r16, 0x0A	; 10
     e06:	10 e0       	ldi	r17, 0x00	; 0
		{
			randkeyPadCode[i] = 'C';
		}
		else if(temp == 14)
		{
			randkeyPadCode[i] = 'D';
     e08:	0f 2e       	mov	r0, r31
     e0a:	f4 e4       	ldi	r31, 0x44	; 68
     e0c:	9f 2e       	mov	r9, r31
     e0e:	f0 2d       	mov	r31, r0
		{
			randkeyPadCode[i] = 'B';
		}
		else if(temp == 13)
		{
			randkeyPadCode[i] = 'C';
     e10:	0f 2e       	mov	r0, r31
     e12:	f3 e4       	ldi	r31, 0x43	; 67
     e14:	af 2e       	mov	r10, r31
     e16:	f0 2d       	mov	r31, r0
		{
			randkeyPadCode[i] = 'A';
		}
		else if(temp == 12)
		{
			randkeyPadCode[i] = 'B';
     e18:	0f 2e       	mov	r0, r31
     e1a:	f2 e4       	ldi	r31, 0x42	; 66
     e1c:	bf 2e       	mov	r11, r31
     e1e:	f0 2d       	mov	r31, r0
		{
			randkeyPadCode[i] = '#';
		}
		else if(temp == 11)
		{
			randkeyPadCode[i] = 'A';
     e20:	0f 2e       	mov	r0, r31
     e22:	f1 e4       	ldi	r31, 0x41	; 65
     e24:	cf 2e       	mov	r12, r31
     e26:	f0 2d       	mov	r31, r0
	for(int i = 0; i < 4; i++)
	{
		temp = rand() % 10;
		if(temp == 10)
		{
			randkeyPadCode[i] = '#';
     e28:	0f 2e       	mov	r0, r31
     e2a:	f3 e2       	ldi	r31, 0x23	; 35
     e2c:	df 2e       	mov	r13, r31
     e2e:	f0 2d       	mov	r31, r0
{
	unsigned char temp = rand() % 10;
	
	for(int i = 0; i < 4; i++)
	{
		temp = rand() % 10;
     e30:	0e 94 8f 10 	call	0x211e	; 0x211e <rand>
     e34:	b8 01       	movw	r22, r16
     e36:	0e 94 35 10 	call	0x206a	; 0x206a <__divmodhi4>
		if(temp == 10)
     e3a:	8a 30       	cpi	r24, 0x0A	; 10
     e3c:	11 f4       	brne	.+4      	; 0xe42 <randomKeyCode+0x68>
		{
			randkeyPadCode[i] = '#';
     e3e:	d8 82       	st	Y, r13
     e40:	11 c0       	rjmp	.+34     	; 0xe64 <randomKeyCode+0x8a>
		}
		else if(temp == 11)
     e42:	8b 30       	cpi	r24, 0x0B	; 11
     e44:	11 f4       	brne	.+4      	; 0xe4a <randomKeyCode+0x70>
		{
			randkeyPadCode[i] = 'A';
     e46:	c8 82       	st	Y, r12
     e48:	0d c0       	rjmp	.+26     	; 0xe64 <randomKeyCode+0x8a>
		}
		else if(temp == 12)
     e4a:	8c 30       	cpi	r24, 0x0C	; 12
     e4c:	11 f4       	brne	.+4      	; 0xe52 <randomKeyCode+0x78>
		{
			randkeyPadCode[i] = 'B';
     e4e:	b8 82       	st	Y, r11
     e50:	09 c0       	rjmp	.+18     	; 0xe64 <randomKeyCode+0x8a>
		}
		else if(temp == 13)
     e52:	8d 30       	cpi	r24, 0x0D	; 13
     e54:	11 f4       	brne	.+4      	; 0xe5a <randomKeyCode+0x80>
		{
			randkeyPadCode[i] = 'C';
     e56:	a8 82       	st	Y, r10
     e58:	05 c0       	rjmp	.+10     	; 0xe64 <randomKeyCode+0x8a>
		}
		else if(temp == 14)
     e5a:	8e 30       	cpi	r24, 0x0E	; 14
     e5c:	11 f4       	brne	.+4      	; 0xe62 <randomKeyCode+0x88>
		{
			randkeyPadCode[i] = 'D';
     e5e:	98 82       	st	Y, r9
     e60:	01 c0       	rjmp	.+2      	; 0xe64 <randomKeyCode+0x8a>
		}
		else
		{
			randkeyPadCode[i] = (char)temp;
     e62:	88 83       	st	Y, r24
     e64:	21 96       	adiw	r28, 0x01	; 1

void randomKeyCode()
{
	unsigned char temp = rand() % 10;
	
	for(int i = 0; i < 4; i++)
     e66:	ce 15       	cp	r28, r14
     e68:	df 05       	cpc	r29, r15
     e6a:	11 f7       	brne	.-60     	; 0xe30 <randomKeyCode+0x56>
		else
		{
			randkeyPadCode[i] = (char)temp;
		}
	}
}
     e6c:	df 91       	pop	r29
     e6e:	cf 91       	pop	r28
     e70:	1f 91       	pop	r17
     e72:	0f 91       	pop	r16
     e74:	ff 90       	pop	r15
     e76:	ef 90       	pop	r14
     e78:	df 90       	pop	r13
     e7a:	cf 90       	pop	r12
     e7c:	bf 90       	pop	r11
     e7e:	af 90       	pop	r10
     e80:	9f 90       	pop	r9
     e82:	08 95       	ret

00000e84 <M_tick>:
		break;
	}
	return state;
}

int M_tick(int state){
     e84:	cf 92       	push	r12
     e86:	df 92       	push	r13
     e88:	ef 92       	push	r14
     e8a:	ff 92       	push	r15
     e8c:	0f 93       	push	r16
     e8e:	1f 93       	push	r17
     e90:	cf 93       	push	r28
     e92:	df 93       	push	r29
     e94:	cd b7       	in	r28, 0x3d	; 61
     e96:	de b7       	in	r29, 0x3e	; 62
     e98:	e2 97       	sbiw	r28, 0x32	; 50
     e9a:	0f b6       	in	r0, 0x3f	; 63
     e9c:	f8 94       	cli
     e9e:	de bf       	out	0x3e, r29	; 62
     ea0:	0f be       	out	0x3f, r0	; 63
     ea2:	cd bf       	out	0x3d, r28	; 61
     ea4:	8c 01       	movw	r16, r24
	switch (state) {
     ea6:	82 30       	cpi	r24, 0x02	; 2
     ea8:	91 05       	cpc	r25, r1
     eaa:	09 f4       	brne	.+2      	; 0xeae <M_tick+0x2a>
     eac:	b9 c0       	rjmp	.+370    	; 0x1020 <M_tick+0x19c>
     eae:	34 f4       	brge	.+12     	; 0xebc <M_tick+0x38>
     eb0:	00 97       	sbiw	r24, 0x00	; 0
     eb2:	71 f0       	breq	.+28     	; 0xed0 <M_tick+0x4c>
     eb4:	01 97       	sbiw	r24, 0x01	; 1
     eb6:	09 f4       	brne	.+2      	; 0xeba <M_tick+0x36>
     eb8:	92 c0       	rjmp	.+292    	; 0xfde <M_tick+0x15a>
     eba:	36 c7       	rjmp	.+3692   	; 0x1d28 <M_tick+0xea4>
     ebc:	84 30       	cpi	r24, 0x04	; 4
     ebe:	91 05       	cpc	r25, r1
     ec0:	09 f4       	brne	.+2      	; 0xec4 <M_tick+0x40>
     ec2:	f3 c0       	rjmp	.+486    	; 0x10aa <M_tick+0x226>
     ec4:	0c f4       	brge	.+2      	; 0xec8 <M_tick+0x44>
     ec6:	db c0       	rjmp	.+438    	; 0x107e <M_tick+0x1fa>
     ec8:	05 97       	sbiw	r24, 0x05	; 5
     eca:	09 f4       	brne	.+2      	; 0xece <M_tick+0x4a>
     ecc:	df c2       	rjmp	.+1470   	; 0x148c <M_tick+0x608>
     ece:	2c c7       	rjmp	.+3672   	; 0x1d28 <M_tick+0xea4>
		case M_Begin:
		transmit_data1(0);
     ed0:	80 e0       	ldi	r24, 0x00	; 0
		transmit_data2(0);
     ed2:	56 db       	rcall	.-2388   	; 0x580 <transmit_data1>
     ed4:	80 e0       	ldi	r24, 0x00	; 0
		LCD_DisplayString(1,"Space Team!");
     ed6:	6f db       	rcall	.-2338   	; 0x5b6 <transmit_data2>
     ed8:	61 ed       	ldi	r22, 0xD1	; 209
     eda:	74 e0       	ldi	r23, 0x04	; 4
     edc:	81 e0       	ldi	r24, 0x01	; 1
		startButtonPressed = ~PINA & 0x80;
     ede:	5e da       	rcall	.-2884   	; 0x39c <LCD_DisplayString>
     ee0:	80 b1       	in	r24, 0x00	; 0
     ee2:	80 95       	com	r24
     ee4:	80 78       	andi	r24, 0x80	; 128
     ee6:	80 93 aa 05 	sts	0x05AA, r24	; 0x8005aa <startButtonPressed>
		if((startButtonPressed == 0x80) && firstTime == 0)
     eea:	80 38       	cpi	r24, 0x80	; 128
     eec:	09 f0       	breq	.+2      	; 0xef0 <M_tick+0x6c>
     eee:	57 c7       	rjmp	.+3758   	; 0x1d9e <M_tick+0xf1a>
     ef0:	80 91 a6 05 	lds	r24, 0x05A6	; 0x8005a6 <firstTime>
     ef4:	90 91 a7 05 	lds	r25, 0x05A7	; 0x8005a7 <firstTime+0x1>
     ef8:	89 2b       	or	r24, r25
     efa:	09 f0       	breq	.+2      	; 0xefe <M_tick+0x7a>
		{
			gameTimer = 1000000;
     efc:	50 c7       	rjmp	.+3744   	; 0x1d9e <M_tick+0xf1a>
     efe:	80 e4       	ldi	r24, 0x40	; 64
     f00:	92 e4       	ldi	r25, 0x42	; 66
     f02:	90 93 af 05 	sts	0x05AF, r25	; 0x8005af <gameTimer+0x1>
     f06:	80 93 ae 05 	sts	0x05AE, r24	; 0x8005ae <gameTimer>
			ogameTime = gameTimer;
     f0a:	90 93 bd 05 	sts	0x05BD, r25	; 0x8005bd <ogameTime+0x1>
     f0e:	80 93 bc 05 	sts	0x05BC, r24	; 0x8005bc <ogameTime>
			gameOn = 1;
     f12:	81 e0       	ldi	r24, 0x01	; 1
     f14:	80 93 a5 05 	sts	0x05A5, r24	; 0x8005a5 <gameOn>
			firstTime++;
     f18:	81 e0       	ldi	r24, 0x01	; 1
     f1a:	90 e0       	ldi	r25, 0x00	; 0
     f1c:	90 93 a7 05 	sts	0x05A7, r25	; 0x8005a7 <firstTime+0x1>
     f20:	80 93 a6 05 	sts	0x05A6, r24	; 0x8005a6 <firstTime>
			numInstruc = 3;
     f24:	83 e0       	ldi	r24, 0x03	; 3
     f26:	80 93 22 01 	sts	0x0122, r24	; 0x800122 <numInstruc>
			onumInstruct = numInstruc;
     f2a:	83 e0       	ldi	r24, 0x03	; 3
     f2c:	90 e0       	ldi	r25, 0x00	; 0
     f2e:	90 93 bb 05 	sts	0x05BB, r25	; 0x8005bb <onumInstruct+0x1>
     f32:	80 93 ba 05 	sts	0x05BA, r24	; 0x8005ba <onumInstruct>
			srand(seed);
     f36:	80 91 a8 05 	lds	r24, 0x05A8	; 0x8005a8 <seed>
     f3a:	90 91 a9 05 	lds	r25, 0x05A9	; 0x8005a9 <seed+0x1>
     f3e:	0e 94 92 10 	call	0x2124	; 0x2124 <srand>
			instruction = 0;
			keyPadIndex = 0;
			
			randomKeyCode();
     f42:	10 92 c4 05 	sts	0x05C4, r1	; 0x8005c4 <instruction>
			clearKeyCode();
     f46:	10 92 ab 05 	sts	0x05AB, r1	; 0x8005ab <keyPadIndex>
			
			char longword[50] = "Enter code:";
     f4a:	47 df       	rcall	.-370    	; 0xdda <randomKeyCode>
     f4c:	3e df       	rcall	.-388    	; 0xdca <clearKeyCode>
     f4e:	8c e0       	ldi	r24, 0x0C	; 12
     f50:	e1 e7       	ldi	r30, 0x71	; 113
     f52:	f1 e0       	ldi	r31, 0x01	; 1
     f54:	de 01       	movw	r26, r28
     f56:	11 96       	adiw	r26, 0x01	; 1
     f58:	01 90       	ld	r0, Z+
     f5a:	0d 92       	st	X+, r0
     f5c:	8a 95       	dec	r24
     f5e:	e1 f7       	brne	.-8      	; 0xf58 <M_tick+0xd4>
     f60:	fe 01       	movw	r30, r28
     f62:	3d 96       	adiw	r30, 0x0d	; 13
     f64:	86 e2       	ldi	r24, 0x26	; 38
     f66:	df 01       	movw	r26, r30
			LCD_DisplayString(1,longword);
     f68:	1d 92       	st	X+, r1
     f6a:	8a 95       	dec	r24
     f6c:	e9 f7       	brne	.-6      	; 0xf68 <M_tick+0xe4>
     f6e:	be 01       	movw	r22, r28
     f70:	6f 5f       	subi	r22, 0xFF	; 255
			
			LCD_Cursor(12);
     f72:	7f 4f       	sbci	r23, 0xFF	; 255
     f74:	81 e0       	ldi	r24, 0x01	; 1
			LCD_WriteData(randkeyPadCode[0] + '0');
     f76:	12 da       	rcall	.-3036   	; 0x39c <LCD_DisplayString>
     f78:	8c e0       	ldi	r24, 0x0C	; 12
     f7a:	f0 d9       	rcall	.-3104   	; 0x35c <LCD_Cursor>
     f7c:	03 e2       	ldi	r16, 0x23	; 35
     f7e:	11 e0       	ldi	r17, 0x01	; 1
			LCD_WriteData(randkeyPadCode[1] + '0');
     f80:	f8 01       	movw	r30, r16
     f82:	80 81       	ld	r24, Z
     f84:	80 5d       	subi	r24, 0xD0	; 208
     f86:	01 da       	rcall	.-3070   	; 0x38a <LCD_WriteData>
			LCD_WriteData(randkeyPadCode[2] + '0');
     f88:	d8 01       	movw	r26, r16
     f8a:	11 96       	adiw	r26, 0x01	; 1
     f8c:	8c 91       	ld	r24, X
     f8e:	80 5d       	subi	r24, 0xD0	; 208
			LCD_WriteData(randkeyPadCode[3] + '0');
     f90:	fc d9       	rcall	.-3080   	; 0x38a <LCD_WriteData>
     f92:	f8 01       	movw	r30, r16
     f94:	82 81       	ldd	r24, Z+2	; 0x02
     f96:	80 5d       	subi	r24, 0xD0	; 208
     f98:	f8 d9       	rcall	.-3088   	; 0x38a <LCD_WriteData>
			
			LCD_Cursor(1);
     f9a:	d8 01       	movw	r26, r16
     f9c:	13 96       	adiw	r26, 0x03	; 3
			LCD_WriteData(keyPadEntry[0] + '0');
     f9e:	8c 91       	ld	r24, X
     fa0:	80 5d       	subi	r24, 0xD0	; 208
     fa2:	f3 d9       	rcall	.-3098   	; 0x38a <LCD_WriteData>
     fa4:	81 e0       	ldi	r24, 0x01	; 1
     fa6:	da d9       	rcall	.-3148   	; 0x35c <LCD_Cursor>
			LCD_WriteData(keyPadEntry[1] + '0');
     fa8:	07 e2       	ldi	r16, 0x27	; 39
     faa:	11 e0       	ldi	r17, 0x01	; 1
     fac:	f8 01       	movw	r30, r16
			LCD_WriteData(keyPadEntry[2] + '0');
     fae:	80 81       	ld	r24, Z
     fb0:	80 5d       	subi	r24, 0xD0	; 208
     fb2:	eb d9       	rcall	.-3114   	; 0x38a <LCD_WriteData>
     fb4:	d8 01       	movw	r26, r16
			LCD_WriteData(keyPadEntry[3] + '0');
     fb6:	11 96       	adiw	r26, 0x01	; 1
     fb8:	8c 91       	ld	r24, X
     fba:	80 5d       	subi	r24, 0xD0	; 208
     fbc:	e6 d9       	rcall	.-3124   	; 0x38a <LCD_WriteData>
     fbe:	f8 01       	movw	r30, r16
     fc0:	82 81       	ldd	r24, Z+2	; 0x02
			
			LCD_Cursor(30);
     fc2:	80 5d       	subi	r24, 0xD0	; 208
     fc4:	e2 d9       	rcall	.-3132   	; 0x38a <LCD_WriteData>
     fc6:	d8 01       	movw	r26, r16
			LCD_WriteData(numInstruc + '0');
     fc8:	13 96       	adiw	r26, 0x03	; 3
     fca:	8c 91       	ld	r24, X
     fcc:	80 5d       	subi	r24, 0xD0	; 208
     fce:	dd d9       	rcall	.-3142   	; 0x38a <LCD_WriteData>
     fd0:	8e e1       	ldi	r24, 0x1E	; 30
		transmit_data1(0);
		transmit_data2(0);
		LCD_DisplayString(1,"Space Team!");
		startButtonPressed = ~PINA & 0x80;
		if((startButtonPressed == 0x80) && firstTime == 0)
		{
     fd2:	c4 d9       	rcall	.-3192   	; 0x35c <LCD_Cursor>
			state = M_Begin;
		}
		break;
		
		case M_Sta:
		if(gameTimer <= 0)
     fd4:	80 91 22 01 	lds	r24, 0x0122	; 0x800122 <numInstruc>
     fd8:	80 5d       	subi	r24, 0xD0	; 208
     fda:	d7 d9       	rcall	.-3154   	; 0x38a <LCD_WriteData>
     fdc:	ba c6       	rjmp	.+3444   	; 0x1d52 <M_tick+0xece>
     fde:	80 91 ae 05 	lds	r24, 0x05AE	; 0x8005ae <gameTimer>
		{
			GAMEOVER = 1;
     fe2:	90 91 af 05 	lds	r25, 0x05AF	; 0x8005af <gameTimer+0x1>
			gameOn = 0;
     fe6:	00 97       	sbiw	r24, 0x00	; 0
     fe8:	41 f4       	brne	.+16     	; 0xffa <M_tick+0x176>
			state = M_gameOver;
     fea:	81 e0       	ldi	r24, 0x01	; 1
     fec:	80 93 a4 05 	sts	0x05A4, r24	; 0x8005a4 <GAMEOVER>
		}
		else
		{
			if(numInstruc <=0)
     ff0:	10 92 a5 05 	sts	0x05A5, r1	; 0x8005a5 <gameOn>
     ff4:	05 e0       	ldi	r16, 0x05	; 5
			{
				instruction = 4;
     ff6:	10 e0       	ldi	r17, 0x00	; 0
				state = M_asteroid;
				gameStart = 1;
     ff8:	d2 c6       	rjmp	.+3492   	; 0x1d9e <M_tick+0xf1a>
     ffa:	20 91 22 01 	lds	r18, 0x0122	; 0x800122 <numInstruc>
		else
		{
			if(numInstruc <=0)
			{
				instruction = 4;
				state = M_asteroid;
     ffe:	21 11       	cpse	r18, r1
    1000:	09 c0       	rjmp	.+18     	; 0x1014 <M_tick+0x190>
    1002:	84 e0       	ldi	r24, 0x04	; 4
				gameStart = 1;
			}
			else
			{
				gameTimer--;
    1004:	80 93 c4 05 	sts	0x05C4, r24	; 0x8005c4 <instruction>
    1008:	81 e0       	ldi	r24, 0x01	; 1
    100a:	80 93 84 05 	sts	0x0584, r24	; 0x800584 <gameStart>
    100e:	02 e0       	ldi	r16, 0x02	; 2
			}
		}
		break;
		
		case M_asteroid:
		LCD_DisplayString(1,"Dodge the asteroids!");
    1010:	10 e0       	ldi	r17, 0x00	; 0
    1012:	c5 c6       	rjmp	.+3466   	; 0x1d9e <M_tick+0xf1a>
    1014:	01 97       	sbiw	r24, 0x01	; 1
    1016:	90 93 af 05 	sts	0x05AF, r25	; 0x8005af <gameTimer+0x1>
		LCD_Cursor(1);
    101a:	80 93 ae 05 	sts	0x05AE, r24	; 0x8005ae <gameTimer>
    101e:	99 c6       	rjmp	.+3378   	; 0x1d52 <M_tick+0xece>
		if(aCompleted == 1)
    1020:	6d ed       	ldi	r22, 0xDD	; 221
    1022:	74 e0       	ldi	r23, 0x04	; 4
    1024:	81 e0       	ldi	r24, 0x01	; 1
    1026:	ba d9       	rcall	.-3212   	; 0x39c <LCD_DisplayString>
		{
			killedCnt--;
    1028:	81 e0       	ldi	r24, 0x01	; 1
    102a:	98 d9       	rcall	.-3280   	; 0x35c <LCD_Cursor>
    102c:	80 91 83 05 	lds	r24, 0x0583	; 0x800583 <aCompleted>
    1030:	81 30       	cpi	r24, 0x01	; 1
			if(killedCnt <= 0)
    1032:	c9 f4       	brne	.+50     	; 0x1066 <M_tick+0x1e2>
    1034:	80 91 06 01 	lds	r24, 0x0106	; 0x800106 <killedCnt>
			{
				aCompleted = 0;
    1038:	81 50       	subi	r24, 0x01	; 1
				multiplier++;
    103a:	80 93 06 01 	sts	0x0106, r24	; 0x800106 <killedCnt>
    103e:	81 11       	cpse	r24, r1
    1040:	12 c0       	rjmp	.+36     	; 0x1066 <M_tick+0x1e2>
    1042:	10 92 83 05 	sts	0x0583, r1	; 0x800583 <aCompleted>
				gameOn = 1;
    1046:	80 91 20 01 	lds	r24, 0x0120	; 0x800120 <multiplier>
				gameStart = 1;
    104a:	8f 5f       	subi	r24, 0xFF	; 255
    104c:	80 93 20 01 	sts	0x0120, r24	; 0x800120 <multiplier>
				instruction = 5;
				state = M_hyperDrive;
    1050:	81 e0       	ldi	r24, 0x01	; 1
				break;
    1052:	80 93 a5 05 	sts	0x05A5, r24	; 0x8005a5 <gameOn>
			}
		}
		
		if(killed == 1)
    1056:	80 93 84 05 	sts	0x0584, r24	; 0x800584 <gameStart>
    105a:	85 e0       	ldi	r24, 0x05	; 5
    105c:	80 93 c4 05 	sts	0x05C4, r24	; 0x8005c4 <instruction>
		{
			GAMEOVER = 1;
    1060:	03 e0       	ldi	r16, 0x03	; 3
			gameOn = 0;
    1062:	10 e0       	ldi	r17, 0x00	; 0
    1064:	9c c6       	rjmp	.+3384   	; 0x1d9e <M_tick+0xf1a>
			state = M_gameOver;
    1066:	80 91 a3 05 	lds	r24, 0x05A3	; 0x8005a3 <killed>
    106a:	81 30       	cpi	r24, 0x01	; 1
			state = M_asteroid;
		}
		break;
		
		case M_hyperDrive:
		LCD_DisplayString(1,"Hit the hyperdrive!");
    106c:	09 f0       	breq	.+2      	; 0x1070 <M_tick+0x1ec>
    106e:	97 c6       	rjmp	.+3374   	; 0x1d9e <M_tick+0xf1a>
    1070:	80 93 a4 05 	sts	0x05A4, r24	; 0x8005a4 <GAMEOVER>
    1074:	10 92 a5 05 	sts	0x05A5, r1	; 0x8005a5 <gameOn>
		LCD_Cursor(1);
    1078:	05 e0       	ldi	r16, 0x05	; 5
    107a:	10 e0       	ldi	r17, 0x00	; 0
		
		if(1)//did not end up using this state
		{
			Hkilled= 0;
    107c:	90 c6       	rjmp	.+3360   	; 0x1d9e <M_tick+0xf1a>
    107e:	62 ef       	ldi	r22, 0xF2	; 242
			hToggle = 0;
    1080:	74 e0       	ldi	r23, 0x04	; 4
    1082:	81 e0       	ldi	r24, 0x01	; 1
			hCompleted = 0;
    1084:	8b d9       	rcall	.-3306   	; 0x39c <LCD_DisplayString>
    1086:	81 e0       	ldi	r24, 0x01	; 1
			multiplier++;
    1088:	69 d9       	rcall	.-3374   	; 0x35c <LCD_Cursor>
    108a:	10 92 7d 05 	sts	0x057D, r1	; 0x80057d <Hkilled>
    108e:	10 92 7c 05 	sts	0x057C, r1	; 0x80057c <hToggle>
			gameOn = 0;
    1092:	10 92 7e 05 	sts	0x057E, r1	; 0x80057e <hCompleted>
			state = M_level;
			break;
    1096:	80 91 20 01 	lds	r24, 0x0120	; 0x800120 <multiplier>
			state = M_hyperDrive;
		}
		break;
		
		case M_level:
		if(cnt <= 0)
    109a:	8f 5f       	subi	r24, 0xFF	; 255
    109c:	80 93 20 01 	sts	0x0120, r24	; 0x800120 <multiplier>
		{
			cnt = 40;
    10a0:	10 92 a5 05 	sts	0x05A5, r1	; 0x8005a5 <gameOn>
    10a4:	04 e0       	ldi	r16, 0x04	; 4
			if(numIADD <= 5)
    10a6:	10 e0       	ldi	r17, 0x00	; 0
    10a8:	7a c6       	rjmp	.+3316   	; 0x1d9e <M_tick+0xf1a>
    10aa:	80 91 1f 01 	lds	r24, 0x011F	; 0x80011f <cnt>
			{
				numIADD++;
    10ae:	81 11       	cpse	r24, r1
    10b0:	e0 c1       	rjmp	.+960    	; 0x1472 <M_tick+0x5ee>
    10b2:	88 e2       	ldi	r24, 0x28	; 40
			}
			numInstruc = onumInstruct + (rand() % numIADD);
    10b4:	80 93 1f 01 	sts	0x011F, r24	; 0x80011f <cnt>
    10b8:	80 91 21 01 	lds	r24, 0x0121	; 0x800121 <numIADD>
    10bc:	86 30       	cpi	r24, 0x06	; 6
    10be:	18 f4       	brcc	.+6      	; 0x10c6 <M_tick+0x242>
    10c0:	8f 5f       	subi	r24, 0xFF	; 255
    10c2:	80 93 21 01 	sts	0x0121, r24	; 0x800121 <numIADD>
    10c6:	0e 94 8f 10 	call	0x211e	; 0x211e <rand>
    10ca:	60 91 21 01 	lds	r22, 0x0121	; 0x800121 <numIADD>
			onumInstruct = numInstruc;
    10ce:	70 e0       	ldi	r23, 0x00	; 0
    10d0:	cc d7       	rcall	.+3992   	; 0x206a <__divmodhi4>
    10d2:	90 91 ba 05 	lds	r25, 0x05BA	; 0x8005ba <onumInstruct>
			uPoints++;
    10d6:	89 0f       	add	r24, r25
    10d8:	80 93 22 01 	sts	0x0122, r24	; 0x800122 <numInstruc>
    10dc:	90 e0       	ldi	r25, 0x00	; 0
    10de:	90 93 bb 05 	sts	0x05BB, r25	; 0x8005bb <onumInstruct+0x1>
    10e2:	80 93 ba 05 	sts	0x05BA, r24	; 0x8005ba <onumInstruct>
			state = M_Sta;
			if(speed >=50)
    10e6:	80 91 ac 05 	lds	r24, 0x05AC	; 0x8005ac <uPoints>
    10ea:	90 91 ad 05 	lds	r25, 0x05AD	; 0x8005ad <uPoints+0x1>
			{
				speed = speed - 10;
    10ee:	01 96       	adiw	r24, 0x01	; 1
    10f0:	90 93 ad 05 	sts	0x05AD, r25	; 0x8005ad <uPoints+0x1>
			}
			gameTimer = ogameTime + (rand() % gameTADD);
    10f4:	80 93 ac 05 	sts	0x05AC, r24	; 0x8005ac <uPoints>
    10f8:	80 91 82 05 	lds	r24, 0x0582	; 0x800582 <speed>
    10fc:	82 33       	cpi	r24, 0x32	; 50
    10fe:	18 f0       	brcs	.+6      	; 0x1106 <M_tick+0x282>
    1100:	8a 50       	subi	r24, 0x0A	; 10
    1102:	80 93 82 05 	sts	0x0582, r24	; 0x800582 <speed>
    1106:	0e 94 8f 10 	call	0x211e	; 0x211e <rand>
    110a:	60 91 2b 01 	lds	r22, 0x012B	; 0x80012b <gameTADD>
    110e:	70 91 2c 01 	lds	r23, 0x012C	; 0x80012c <gameTADD+0x1>
			ogameTime = gameTimer;
    1112:	97 d7       	rcall	.+3886   	; 0x2042 <__udivmodhi4>
    1114:	20 91 bc 05 	lds	r18, 0x05BC	; 0x8005bc <ogameTime>
			gameOn = 1;
    1118:	30 91 bd 05 	lds	r19, 0x05BD	; 0x8005bd <ogameTime+0x1>
    111c:	82 0f       	add	r24, r18
				instruction = rand() % 4;
    111e:	93 1f       	adc	r25, r19
    1120:	90 93 af 05 	sts	0x05AF, r25	; 0x8005af <gameTimer+0x1>
    1124:	80 93 ae 05 	sts	0x05AE, r24	; 0x8005ae <gameTimer>
    1128:	90 93 bd 05 	sts	0x05BD, r25	; 0x8005bd <ogameTime+0x1>
    112c:	80 93 bc 05 	sts	0x05BC, r24	; 0x8005bc <ogameTime>
    1130:	81 e0       	ldi	r24, 0x01	; 1
    1132:	80 93 a5 05 	sts	0x05A5, r24	; 0x8005a5 <gameOn>
				/*while(instruction == 1)
				{
					instruction = rand() % 4;
				}*/
				if(instruction == 0)
    1136:	f3 d7       	rcall	.+4070   	; 0x211e <rand>
    1138:	83 70       	andi	r24, 0x03	; 3
				{
					clearKeyCode();
    113a:	90 78       	andi	r25, 0x80	; 128
					keyPadIndex = 0;
    113c:	99 23       	and	r25, r25
					randomKeyCode();
    113e:	24 f4       	brge	.+8      	; 0x1148 <M_tick+0x2c4>
    1140:	01 97       	sbiw	r24, 0x01	; 1
					char longword[50] = "Enter code:";
    1142:	8c 6f       	ori	r24, 0xFC	; 252
    1144:	9f 6f       	ori	r25, 0xFF	; 255
    1146:	01 96       	adiw	r24, 0x01	; 1
    1148:	80 93 c4 05 	sts	0x05C4, r24	; 0x8005c4 <instruction>
    114c:	81 11       	cpse	r24, r1
    114e:	30 c0       	rjmp	.+96     	; 0x11b0 <M_tick+0x32c>
    1150:	3c de       	rcall	.-904    	; 0xdca <clearKeyCode>
    1152:	10 92 ab 05 	sts	0x05AB, r1	; 0x8005ab <keyPadIndex>
    1156:	41 de       	rcall	.-894    	; 0xdda <randomKeyCode>
    1158:	8c e0       	ldi	r24, 0x0C	; 12
    115a:	e1 e7       	ldi	r30, 0x71	; 113
					LCD_DisplayString(1,longword);
    115c:	f1 e0       	ldi	r31, 0x01	; 1
    115e:	de 01       	movw	r26, r28
    1160:	11 96       	adiw	r26, 0x01	; 1
    1162:	01 90       	ld	r0, Z+
					
					LCD_Cursor(12);
    1164:	0d 92       	st	X+, r0
    1166:	8a 95       	dec	r24
					LCD_WriteData(randkeyPadCode[0] + '0');
    1168:	e1 f7       	brne	.-8      	; 0x1162 <M_tick+0x2de>
    116a:	fe 01       	movw	r30, r28
    116c:	3d 96       	adiw	r30, 0x0d	; 13
    116e:	86 e2       	ldi	r24, 0x26	; 38
    1170:	df 01       	movw	r26, r30
    1172:	1d 92       	st	X+, r1
					LCD_WriteData(randkeyPadCode[1] + '0');
    1174:	8a 95       	dec	r24
    1176:	e9 f7       	brne	.-6      	; 0x1172 <M_tick+0x2ee>
    1178:	be 01       	movw	r22, r28
    117a:	6f 5f       	subi	r22, 0xFF	; 255
    117c:	7f 4f       	sbci	r23, 0xFF	; 255
    117e:	81 e0       	ldi	r24, 0x01	; 1
					LCD_WriteData(randkeyPadCode[2] + '0');
    1180:	0d d9       	rcall	.-3558   	; 0x39c <LCD_DisplayString>
    1182:	8c e0       	ldi	r24, 0x0C	; 12
    1184:	eb d8       	rcall	.-3626   	; 0x35c <LCD_Cursor>
    1186:	03 e2       	ldi	r16, 0x23	; 35
    1188:	11 e0       	ldi	r17, 0x01	; 1
					LCD_WriteData(randkeyPadCode[3] + '0');
    118a:	f8 01       	movw	r30, r16
    118c:	80 81       	ld	r24, Z
    118e:	80 5d       	subi	r24, 0xD0	; 208
    1190:	fc d8       	rcall	.-3592   	; 0x38a <LCD_WriteData>
    1192:	d8 01       	movw	r26, r16
    1194:	11 96       	adiw	r26, 0x01	; 1
    1196:	8c 91       	ld	r24, X
				}
				else if(instruction == 1)
    1198:	80 5d       	subi	r24, 0xD0	; 208
    119a:	f7 d8       	rcall	.-3602   	; 0x38a <LCD_WriteData>
    119c:	f8 01       	movw	r30, r16
				{
					ADC_init();
    119e:	82 81       	ldd	r24, Z+2	; 0x02
    11a0:	80 5d       	subi	r24, 0xD0	; 208
					wTick = 0;
    11a2:	f3 d8       	rcall	.-3610   	; 0x38a <LCD_WriteData>
    11a4:	d8 01       	movw	r26, r16
    11a6:	13 96       	adiw	r26, 0x03	; 3
    11a8:	8c 91       	ld	r24, X
					weightToggle = rand() % 2;
    11aa:	80 5d       	subi	r24, 0xD0	; 208
    11ac:	ee d8       	rcall	.-3620   	; 0x38a <LCD_WriteData>
    11ae:	d1 c5       	rjmp	.+2978   	; 0x1d52 <M_tick+0xece>
    11b0:	81 30       	cpi	r24, 0x01	; 1
    11b2:	09 f0       	breq	.+2      	; 0x11b6 <M_tick+0x332>
    11b4:	3e c0       	rjmp	.+124    	; 0x1232 <M_tick+0x3ae>
    11b6:	64 d9       	rcall	.-3384   	; 0x480 <ADC_init>
    11b8:	10 92 a0 05 	sts	0x05A0, r1	; 0x8005a0 <wTick+0x1>
    11bc:	10 92 9f 05 	sts	0x059F, r1	; 0x80059f <wTick>
					if(weightToggle == 0)
    11c0:	ae d7       	rcall	.+3932   	; 0x211e <rand>
    11c2:	81 70       	andi	r24, 0x01	; 1
					{
						char longword[50] = "Press lightly on the weight. ";
    11c4:	90 78       	andi	r25, 0x80	; 128
    11c6:	99 23       	and	r25, r25
    11c8:	24 f4       	brge	.+8      	; 0x11d2 <M_tick+0x34e>
    11ca:	01 97       	sbiw	r24, 0x01	; 1
    11cc:	8e 6f       	ori	r24, 0xFE	; 254
    11ce:	9f 6f       	ori	r25, 0xFF	; 255
    11d0:	01 96       	adiw	r24, 0x01	; 1
    11d2:	80 93 b0 05 	sts	0x05B0, r24	; 0x8005b0 <weightToggle>
    11d6:	81 11       	cpse	r24, r1
    11d8:	16 c0       	rjmp	.+44     	; 0x1206 <M_tick+0x382>
    11da:	8e e1       	ldi	r24, 0x1E	; 30
    11dc:	e3 ea       	ldi	r30, 0xA3	; 163
    11de:	f1 e0       	ldi	r31, 0x01	; 1
						LCD_DisplayString(1,longword);
    11e0:	de 01       	movw	r26, r28
    11e2:	11 96       	adiw	r26, 0x01	; 1
    11e4:	01 90       	ld	r0, Z+
    11e6:	0d 92       	st	X+, r0
    11e8:	8a 95       	dec	r24
    11ea:	e1 f7       	brne	.-8      	; 0x11e4 <M_tick+0x360>
					}
					else
					{
						char longword[50] = "Press hard on the weight.";
    11ec:	fe 01       	movw	r30, r28
    11ee:	7f 96       	adiw	r30, 0x1f	; 31
    11f0:	84 e1       	ldi	r24, 0x14	; 20
    11f2:	df 01       	movw	r26, r30
    11f4:	1d 92       	st	X+, r1
    11f6:	8a 95       	dec	r24
    11f8:	e9 f7       	brne	.-6      	; 0x11f4 <M_tick+0x370>
    11fa:	be 01       	movw	r22, r28
    11fc:	6f 5f       	subi	r22, 0xFF	; 255
    11fe:	7f 4f       	sbci	r23, 0xFF	; 255
    1200:	81 e0       	ldi	r24, 0x01	; 1
    1202:	cc d8       	rcall	.-3688   	; 0x39c <LCD_DisplayString>
    1204:	a6 c5       	rjmp	.+2892   	; 0x1d52 <M_tick+0xece>
    1206:	8a e1       	ldi	r24, 0x1A	; 26
    1208:	e5 ed       	ldi	r30, 0xD5	; 213
    120a:	f1 e0       	ldi	r31, 0x01	; 1
						LCD_DisplayString(1,longword);
    120c:	de 01       	movw	r26, r28
    120e:	11 96       	adiw	r26, 0x01	; 1
    1210:	01 90       	ld	r0, Z+
    1212:	0d 92       	st	X+, r0
    1214:	8a 95       	dec	r24
    1216:	e1 f7       	brne	.-8      	; 0x1210 <M_tick+0x38c>
    1218:	fe 01       	movw	r30, r28
					}
				}
				else if(instruction == 2)
    121a:	7b 96       	adiw	r30, 0x1b	; 27
    121c:	88 e1       	ldi	r24, 0x18	; 24
    121e:	df 01       	movw	r26, r30
				{
					InitADC();
    1220:	1d 92       	st	X+, r1
    1222:	8a 95       	dec	r24
					jTick = 0;
    1224:	e9 f7       	brne	.-6      	; 0x1220 <M_tick+0x39c>
    1226:	be 01       	movw	r22, r28
    1228:	6f 5f       	subi	r22, 0xFF	; 255
					directionToggle = rand() % 4;
    122a:	7f 4f       	sbci	r23, 0xFF	; 255
    122c:	81 e0       	ldi	r24, 0x01	; 1
    122e:	b6 d8       	rcall	.-3732   	; 0x39c <LCD_DisplayString>
    1230:	90 c5       	rjmp	.+2848   	; 0x1d52 <M_tick+0xece>
    1232:	82 30       	cpi	r24, 0x02	; 2
    1234:	09 f0       	breq	.+2      	; 0x1238 <M_tick+0x3b4>
    1236:	71 c0       	rjmp	.+226    	; 0x131a <M_tick+0x496>
    1238:	2c d9       	rcall	.-3496   	; 0x492 <InitADC>
    123a:	10 92 9a 05 	sts	0x059A, r1	; 0x80059a <jTick+0x1>
    123e:	10 92 99 05 	sts	0x0599, r1	; 0x800599 <jTick>
					if(directionToggle == 0)
    1242:	6d d7       	rcall	.+3802   	; 0x211e <rand>
    1244:	83 70       	andi	r24, 0x03	; 3
					{
						char longword[50] = "Steer Right.";
    1246:	90 78       	andi	r25, 0x80	; 128
    1248:	99 23       	and	r25, r25
    124a:	24 f4       	brge	.+8      	; 0x1254 <M_tick+0x3d0>
    124c:	01 97       	sbiw	r24, 0x01	; 1
    124e:	8c 6f       	ori	r24, 0xFC	; 252
    1250:	9f 6f       	ori	r25, 0xFF	; 255
    1252:	01 96       	adiw	r24, 0x01	; 1
    1254:	80 93 9b 05 	sts	0x059B, r24	; 0x80059b <directionToggle>
    1258:	81 11       	cpse	r24, r1
    125a:	16 c0       	rjmp	.+44     	; 0x1288 <M_tick+0x404>
    125c:	8d e0       	ldi	r24, 0x0D	; 13
    125e:	e7 e0       	ldi	r30, 0x07	; 7
    1260:	f2 e0       	ldi	r31, 0x02	; 2
    1262:	de 01       	movw	r26, r28
						LCD_DisplayString(1,longword);
    1264:	11 96       	adiw	r26, 0x01	; 1
    1266:	01 90       	ld	r0, Z+
    1268:	0d 92       	st	X+, r0
    126a:	8a 95       	dec	r24
    126c:	e1 f7       	brne	.-8      	; 0x1266 <M_tick+0x3e2>
    126e:	fe 01       	movw	r30, r28
    1270:	3e 96       	adiw	r30, 0x0e	; 14
					}
					else if(directionToggle == 1)
    1272:	85 e2       	ldi	r24, 0x25	; 37
    1274:	df 01       	movw	r26, r30
					{
						char longword[50] = "Steer Left.";
    1276:	1d 92       	st	X+, r1
    1278:	8a 95       	dec	r24
    127a:	e9 f7       	brne	.-6      	; 0x1276 <M_tick+0x3f2>
    127c:	be 01       	movw	r22, r28
    127e:	6f 5f       	subi	r22, 0xFF	; 255
    1280:	7f 4f       	sbci	r23, 0xFF	; 255
    1282:	81 e0       	ldi	r24, 0x01	; 1
    1284:	8b d8       	rcall	.-3818   	; 0x39c <LCD_DisplayString>
    1286:	65 c5       	rjmp	.+2762   	; 0x1d52 <M_tick+0xece>
    1288:	81 30       	cpi	r24, 0x01	; 1
    128a:	b1 f4       	brne	.+44     	; 0x12b8 <M_tick+0x434>
    128c:	8c e0       	ldi	r24, 0x0C	; 12
    128e:	e9 e3       	ldi	r30, 0x39	; 57
    1290:	f2 e0       	ldi	r31, 0x02	; 2
    1292:	de 01       	movw	r26, r28
						LCD_DisplayString(1,longword);
    1294:	11 96       	adiw	r26, 0x01	; 1
    1296:	01 90       	ld	r0, Z+
    1298:	0d 92       	st	X+, r0
    129a:	8a 95       	dec	r24
    129c:	e1 f7       	brne	.-8      	; 0x1296 <M_tick+0x412>
    129e:	fe 01       	movw	r30, r28
    12a0:	3d 96       	adiw	r30, 0x0d	; 13
					}
					else if(directionToggle == 2)
    12a2:	86 e2       	ldi	r24, 0x26	; 38
    12a4:	df 01       	movw	r26, r30
					{
						char longword[50] = "Steer Up.";
    12a6:	1d 92       	st	X+, r1
    12a8:	8a 95       	dec	r24
    12aa:	e9 f7       	brne	.-6      	; 0x12a6 <M_tick+0x422>
    12ac:	be 01       	movw	r22, r28
    12ae:	6f 5f       	subi	r22, 0xFF	; 255
    12b0:	7f 4f       	sbci	r23, 0xFF	; 255
    12b2:	81 e0       	ldi	r24, 0x01	; 1
    12b4:	73 d8       	rcall	.-3866   	; 0x39c <LCD_DisplayString>
    12b6:	4d c5       	rjmp	.+2714   	; 0x1d52 <M_tick+0xece>
    12b8:	82 30       	cpi	r24, 0x02	; 2
    12ba:	b1 f4       	brne	.+44     	; 0x12e8 <M_tick+0x464>
    12bc:	8a e0       	ldi	r24, 0x0A	; 10
    12be:	eb e6       	ldi	r30, 0x6B	; 107
    12c0:	f2 e0       	ldi	r31, 0x02	; 2
						LCD_DisplayString(1,longword);
    12c2:	de 01       	movw	r26, r28
    12c4:	11 96       	adiw	r26, 0x01	; 1
    12c6:	01 90       	ld	r0, Z+
    12c8:	0d 92       	st	X+, r0
    12ca:	8a 95       	dec	r24
    12cc:	e1 f7       	brne	.-8      	; 0x12c6 <M_tick+0x442>
					}
					else if(directionToggle == 3)
    12ce:	fe 01       	movw	r30, r28
    12d0:	3b 96       	adiw	r30, 0x0b	; 11
					{
						char longword[50] = "Steer Down.";
    12d2:	88 e2       	ldi	r24, 0x28	; 40
    12d4:	df 01       	movw	r26, r30
    12d6:	1d 92       	st	X+, r1
    12d8:	8a 95       	dec	r24
    12da:	e9 f7       	brne	.-6      	; 0x12d6 <M_tick+0x452>
    12dc:	be 01       	movw	r22, r28
    12de:	6f 5f       	subi	r22, 0xFF	; 255
    12e0:	7f 4f       	sbci	r23, 0xFF	; 255
    12e2:	81 e0       	ldi	r24, 0x01	; 1
    12e4:	5b d8       	rcall	.-3914   	; 0x39c <LCD_DisplayString>
    12e6:	35 c5       	rjmp	.+2666   	; 0x1d52 <M_tick+0xece>
    12e8:	83 30       	cpi	r24, 0x03	; 3
    12ea:	09 f0       	breq	.+2      	; 0x12ee <M_tick+0x46a>
    12ec:	32 c5       	rjmp	.+2660   	; 0x1d52 <M_tick+0xece>
    12ee:	8c e0       	ldi	r24, 0x0C	; 12
    12f0:	ed e9       	ldi	r30, 0x9D	; 157
						LCD_DisplayString(1,longword);
    12f2:	f2 e0       	ldi	r31, 0x02	; 2
    12f4:	de 01       	movw	r26, r28
    12f6:	11 96       	adiw	r26, 0x01	; 1
    12f8:	01 90       	ld	r0, Z+
    12fa:	0d 92       	st	X+, r0
    12fc:	8a 95       	dec	r24
    12fe:	e1 f7       	brne	.-8      	; 0x12f8 <M_tick+0x474>
					}
				}
				else if(instruction == 3)
    1300:	fe 01       	movw	r30, r28
    1302:	3d 96       	adiw	r30, 0x0d	; 13
    1304:	86 e2       	ldi	r24, 0x26	; 38
				{
					ADC_init();
    1306:	df 01       	movw	r26, r30
    1308:	1d 92       	st	X+, r1
					rTick = 0;
    130a:	8a 95       	dec	r24
    130c:	e9 f7       	brne	.-6      	; 0x1308 <M_tick+0x484>
    130e:	be 01       	movw	r22, r28
    1310:	6f 5f       	subi	r22, 0xFF	; 255
					MAX = 100;
    1312:	7f 4f       	sbci	r23, 0xFF	; 255
    1314:	81 e0       	ldi	r24, 0x01	; 1
    1316:	42 d8       	rcall	.-3964   	; 0x39c <LCD_DisplayString>
    1318:	1c c5       	rjmp	.+2616   	; 0x1d52 <M_tick+0xece>
    131a:	83 30       	cpi	r24, 0x03	; 3
    131c:	09 f0       	breq	.+2      	; 0x1320 <M_tick+0x49c>
					randPosIndex = rand() % 3;
    131e:	2b c5       	rjmp	.+2646   	; 0x1d76 <M_tick+0xef2>
    1320:	af d8       	rcall	.-3746   	; 0x480 <ADC_init>
    1322:	10 92 8c 05 	sts	0x058C, r1	; 0x80058c <rTick+0x1>
    1326:	10 92 8b 05 	sts	0x058B, r1	; 0x80058b <rTick>
					if(randPosIndex == 0)
    132a:	84 e6       	ldi	r24, 0x64	; 100
    132c:	90 e0       	ldi	r25, 0x00	; 0
					{
						randPos = 0;
    132e:	90 93 94 05 	sts	0x0594, r25	; 0x800594 <MAX+0x1>
    1332:	80 93 93 05 	sts	0x0593, r24	; 0x800593 <MAX>
						randPos = 10;
					}
					
					while(randPos == rotPos)
					{
						randPosIndex = rand() % 3;
    1336:	f3 d6       	rcall	.+3558   	; 0x211e <rand>
    1338:	63 e0       	ldi	r22, 0x03	; 3
    133a:	70 e0       	ldi	r23, 0x00	; 0
    133c:	96 d6       	rcall	.+3372   	; 0x206a <__divmodhi4>
    133e:	80 93 88 05 	sts	0x0588, r24	; 0x800588 <randPosIndex>
						{
							randPos = 5;
						}
						else if(randPosIndex == 2)
						{
							randPos = 10;
    1342:	81 11       	cpse	r24, r1
    1344:	11 c0       	rjmp	.+34     	; 0x1368 <M_tick+0x4e4>
    1346:	10 92 8a 05 	sts	0x058A, r1	; 0x80058a <randPos+0x1>
						{
							randPos = 0;
						}
						else if(randPosIndex == 1)
						{
							randPos = 5;
    134a:	10 92 89 05 	sts	0x0589, r1	; 0x800589 <randPos>
    134e:	0f 2e       	mov	r0, r31
					randPosIndex = rand() % 3;
					if(randPosIndex == 0)
					{
						randPos = 0;
					}
					else if(randPosIndex == 1)
    1350:	f3 e0       	ldi	r31, 0x03	; 3
    1352:	cf 2e       	mov	r12, r31
					{
						randPos = 5;
    1354:	d1 2c       	mov	r13, r1
    1356:	f0 2d       	mov	r31, r0
    1358:	0f 2e       	mov	r0, r31
    135a:	fa e0       	ldi	r31, 0x0A	; 10
    135c:	ef 2e       	mov	r14, r31
    135e:	f1 2c       	mov	r15, r1
    1360:	f0 2d       	mov	r31, r0
					}
					else if(randPosIndex == 2)
    1362:	05 e0       	ldi	r16, 0x05	; 5
    1364:	10 e0       	ldi	r17, 0x00	; 0
					{
						randPos = 10;
    1366:	2b c0       	rjmp	.+86     	; 0x13be <M_tick+0x53a>
    1368:	81 30       	cpi	r24, 0x01	; 1
    136a:	39 f4       	brne	.+14     	; 0x137a <M_tick+0x4f6>
    136c:	85 e0       	ldi	r24, 0x05	; 5
    136e:	90 e0       	ldi	r25, 0x00	; 0
    1370:	90 93 8a 05 	sts	0x058A, r25	; 0x80058a <randPos+0x1>
					}
					
					while(randPos == rotPos)
					{
						randPosIndex = rand() % 3;
    1374:	80 93 89 05 	sts	0x0589, r24	; 0x800589 <randPos>
    1378:	ea cf       	rjmp	.-44     	; 0x134e <M_tick+0x4ca>
    137a:	82 30       	cpi	r24, 0x02	; 2
    137c:	41 f7       	brne	.-48     	; 0x134e <M_tick+0x4ca>
    137e:	8a e0       	ldi	r24, 0x0A	; 10
    1380:	90 e0       	ldi	r25, 0x00	; 0
						if(randPosIndex == 0)
    1382:	90 93 8a 05 	sts	0x058A, r25	; 0x80058a <randPos+0x1>
						{
							randPos = 0;
    1386:	80 93 89 05 	sts	0x0589, r24	; 0x800589 <randPos>
    138a:	e1 cf       	rjmp	.-62     	; 0x134e <M_tick+0x4ca>
    138c:	c8 d6       	rcall	.+3472   	; 0x211e <rand>
    138e:	b6 01       	movw	r22, r12
						}
						else if(randPosIndex == 1)
    1390:	6c d6       	rcall	.+3288   	; 0x206a <__divmodhi4>
    1392:	80 93 88 05 	sts	0x0588, r24	; 0x800588 <randPosIndex>
						{
							randPos = 5;
    1396:	81 11       	cpse	r24, r1
    1398:	05 c0       	rjmp	.+10     	; 0x13a4 <M_tick+0x520>
    139a:	10 92 8a 05 	sts	0x058A, r1	; 0x80058a <randPos+0x1>
						}
						else if(randPosIndex == 2)
    139e:	10 92 89 05 	sts	0x0589, r1	; 0x800589 <randPos>
						{
							randPos = 10;
    13a2:	0d c0       	rjmp	.+26     	; 0x13be <M_tick+0x53a>
    13a4:	81 30       	cpi	r24, 0x01	; 1
    13a6:	29 f4       	brne	.+10     	; 0x13b2 <M_tick+0x52e>
    13a8:	10 93 8a 05 	sts	0x058A, r17	; 0x80058a <randPos+0x1>
					else if(randPosIndex == 2)
					{
						randPos = 10;
					}
					
					while(randPos == rotPos)
    13ac:	00 93 89 05 	sts	0x0589, r16	; 0x800589 <randPos>
    13b0:	06 c0       	rjmp	.+12     	; 0x13be <M_tick+0x53a>
    13b2:	82 30       	cpi	r24, 0x02	; 2
    13b4:	21 f4       	brne	.+8      	; 0x13be <M_tick+0x53a>
    13b6:	f0 92 8a 05 	sts	0x058A, r15	; 0x80058a <randPos+0x1>
    13ba:	e0 92 89 05 	sts	0x0589, r14	; 0x800589 <randPos>
    13be:	80 91 89 05 	lds	r24, 0x0589	; 0x800589 <randPos>
						{
							randPos = 10;
						}
					}
					
					if(randPosIndex == 0)
    13c2:	90 91 8a 05 	lds	r25, 0x058A	; 0x80058a <randPos+0x1>
    13c6:	20 91 91 05 	lds	r18, 0x0591	; 0x800591 <rotPos>
					{
						char longword[50] = "Turn knob to 1.";
    13ca:	30 91 92 05 	lds	r19, 0x0592	; 0x800592 <rotPos+0x1>
    13ce:	82 17       	cp	r24, r18
    13d0:	93 07       	cpc	r25, r19
    13d2:	e1 f2       	breq	.-72     	; 0x138c <M_tick+0x508>
    13d4:	20 91 88 05 	lds	r18, 0x0588	; 0x800588 <randPosIndex>
    13d8:	21 11       	cpse	r18, r1
    13da:	17 c0       	rjmp	.+46     	; 0x140a <M_tick+0x586>
    13dc:	80 e1       	ldi	r24, 0x10	; 16
    13de:	ef ec       	ldi	r30, 0xCF	; 207
    13e0:	f2 e0       	ldi	r31, 0x02	; 2
    13e2:	de 01       	movw	r26, r28
    13e4:	11 96       	adiw	r26, 0x01	; 1
    13e6:	01 90       	ld	r0, Z+
						LCD_DisplayString(1,longword);
    13e8:	0d 92       	st	X+, r0
    13ea:	8a 95       	dec	r24
    13ec:	e1 f7       	brne	.-8      	; 0x13e6 <M_tick+0x562>
    13ee:	fe 01       	movw	r30, r28
    13f0:	71 96       	adiw	r30, 0x11	; 17
    13f2:	82 e2       	ldi	r24, 0x22	; 34
    13f4:	df 01       	movw	r26, r30
					}
					else if(randPos == 5)
    13f6:	1d 92       	st	X+, r1
    13f8:	8a 95       	dec	r24
    13fa:	e9 f7       	brne	.-6      	; 0x13f6 <M_tick+0x572>
					{
						char longword[50] = "Turn knob to 2.";
    13fc:	be 01       	movw	r22, r28
    13fe:	6f 5f       	subi	r22, 0xFF	; 255
    1400:	7f 4f       	sbci	r23, 0xFF	; 255
    1402:	81 e0       	ldi	r24, 0x01	; 1
    1404:	0e 94 ce 01 	call	0x39c	; 0x39c <LCD_DisplayString>
    1408:	a4 c4       	rjmp	.+2376   	; 0x1d52 <M_tick+0xece>
    140a:	85 30       	cpi	r24, 0x05	; 5
    140c:	91 05       	cpc	r25, r1
    140e:	b9 f4       	brne	.+46     	; 0x143e <M_tick+0x5ba>
    1410:	80 e1       	ldi	r24, 0x10	; 16
    1412:	e1 e0       	ldi	r30, 0x01	; 1
    1414:	f3 e0       	ldi	r31, 0x03	; 3
    1416:	de 01       	movw	r26, r28
    1418:	11 96       	adiw	r26, 0x01	; 1
    141a:	01 90       	ld	r0, Z+
						LCD_DisplayString(1,longword);
    141c:	0d 92       	st	X+, r0
    141e:	8a 95       	dec	r24
    1420:	e1 f7       	brne	.-8      	; 0x141a <M_tick+0x596>
    1422:	fe 01       	movw	r30, r28
    1424:	71 96       	adiw	r30, 0x11	; 17
    1426:	82 e2       	ldi	r24, 0x22	; 34
    1428:	df 01       	movw	r26, r30
					}
					else if(randPos == 10)
    142a:	1d 92       	st	X+, r1
    142c:	8a 95       	dec	r24
    142e:	e9 f7       	brne	.-6      	; 0x142a <M_tick+0x5a6>
					{
						char longword[50] = "Turn knob to 3.";
    1430:	be 01       	movw	r22, r28
    1432:	6f 5f       	subi	r22, 0xFF	; 255
    1434:	7f 4f       	sbci	r23, 0xFF	; 255
    1436:	81 e0       	ldi	r24, 0x01	; 1
    1438:	0e 94 ce 01 	call	0x39c	; 0x39c <LCD_DisplayString>
    143c:	8a c4       	rjmp	.+2324   	; 0x1d52 <M_tick+0xece>
    143e:	0a 97       	sbiw	r24, 0x0a	; 10
    1440:	09 f0       	breq	.+2      	; 0x1444 <M_tick+0x5c0>
    1442:	87 c4       	rjmp	.+2318   	; 0x1d52 <M_tick+0xece>
    1444:	80 e1       	ldi	r24, 0x10	; 16
    1446:	e3 e3       	ldi	r30, 0x33	; 51
    1448:	f3 e0       	ldi	r31, 0x03	; 3
    144a:	de 01       	movw	r26, r28
    144c:	11 96       	adiw	r26, 0x01	; 1
    144e:	01 90       	ld	r0, Z+
						LCD_DisplayString(1,longword);
    1450:	0d 92       	st	X+, r0
    1452:	8a 95       	dec	r24
    1454:	e1 f7       	brne	.-8      	; 0x144e <M_tick+0x5ca>
    1456:	fe 01       	movw	r30, r28
    1458:	71 96       	adiw	r30, 0x11	; 17
    145a:	82 e2       	ldi	r24, 0x22	; 34
    145c:	df 01       	movw	r26, r30
					}
				}
		}
		else
		{
			if(cnt <= 20)
    145e:	1d 92       	st	X+, r1
    1460:	8a 95       	dec	r24
			{
				LCD_DisplayString(1,"LEVEL COMPLETE!");
    1462:	e9 f7       	brne	.-6      	; 0x145e <M_tick+0x5da>
    1464:	be 01       	movw	r22, r28
    1466:	6f 5f       	subi	r22, 0xFF	; 255
    1468:	7f 4f       	sbci	r23, 0xFF	; 255
    146a:	81 e0       	ldi	r24, 0x01	; 1
			}
			cnt--;
    146c:	0e 94 ce 01 	call	0x39c	; 0x39c <LCD_DisplayString>
    1470:	70 c4       	rjmp	.+2272   	; 0x1d52 <M_tick+0xece>
    1472:	85 31       	cpi	r24, 0x15	; 21
    1474:	28 f4       	brcc	.+10     	; 0x1480 <M_tick+0x5fc>
    1476:	66 e0       	ldi	r22, 0x06	; 6
			state = M_level;
		}
		break;
		
		case M_gameOver:
			LCD_DisplayString(1,"GAME OVER. Your score:");
    1478:	75 e0       	ldi	r23, 0x05	; 5
    147a:	81 e0       	ldi	r24, 0x01	; 1
    147c:	0e 94 ce 01 	call	0x39c	; 0x39c <LCD_DisplayString>
    1480:	80 91 1f 01 	lds	r24, 0x011F	; 0x80011f <cnt>
			LCD_Cursor(28);
    1484:	81 50       	subi	r24, 0x01	; 1
    1486:	80 93 1f 01 	sts	0x011F, r24	; 0x80011f <cnt>
			LCD_WriteData(uPoints +'0');
    148a:	89 c4       	rjmp	.+2322   	; 0x1d9e <M_tick+0xf1a>
    148c:	66 e1       	ldi	r22, 0x16	; 22
    148e:	75 e0       	ldi	r23, 0x05	; 5
    1490:	81 e0       	ldi	r24, 0x01	; 1
			startButtonPressed = ~PINA & 0x80;
    1492:	0e 94 ce 01 	call	0x39c	; 0x39c <LCD_DisplayString>
    1496:	8c e1       	ldi	r24, 0x1C	; 28
    1498:	0e 94 ae 01 	call	0x35c	; 0x35c <LCD_Cursor>
			if(startButtonPressed == 0x80)
    149c:	80 91 ac 05 	lds	r24, 0x05AC	; 0x8005ac <uPoints>
    14a0:	80 5d       	subi	r24, 0xD0	; 208
			{
				uPoints = 0;
    14a2:	0e 94 c5 01 	call	0x38a	; 0x38a <LCD_WriteData>
    14a6:	80 b1       	in	r24, 0x00	; 0
    14a8:	80 95       	com	r24
				seed = 0;
    14aa:	80 78       	andi	r24, 0x80	; 128
    14ac:	80 93 aa 05 	sts	0x05AA, r24	; 0x8005aa <startButtonPressed>
    14b0:	80 38       	cpi	r24, 0x80	; 128
				multiplier = 1;
    14b2:	09 f0       	breq	.+2      	; 0x14b6 <M_tick+0x632>
    14b4:	74 c4       	rjmp	.+2280   	; 0x1d9e <M_tick+0xf1a>
    14b6:	10 92 ad 05 	sts	0x05AD, r1	; 0x8005ad <uPoints+0x1>
				GAMEOVER = 0;
    14ba:	10 92 ac 05 	sts	0x05AC, r1	; 0x8005ac <uPoints>
				firstTime = 0;
    14be:	10 92 a9 05 	sts	0x05A9, r1	; 0x8005a9 <seed+0x1>
				killed = 0;
    14c2:	10 92 a8 05 	sts	0x05A8, r1	; 0x8005a8 <seed>
    14c6:	81 e0       	ldi	r24, 0x01	; 1
    14c8:	80 93 20 01 	sts	0x0120, r24	; 0x800120 <multiplier>
				int i  = 1000;
				while(i >= 0)
				{
					i--;
					while(!TimerFlag);
    14cc:	10 92 a4 05 	sts	0x05A4, r1	; 0x8005a4 <GAMEOVER>
    14d0:	10 92 a7 05 	sts	0x05A7, r1	; 0x8005a7 <firstTime+0x1>
					TimerFlag = 0;
    14d4:	10 92 a6 05 	sts	0x05A6, r1	; 0x8005a6 <firstTime>
    14d8:	10 92 a3 05 	sts	0x05A3, r1	; 0x8005a3 <killed>
				}
				state = M_Begin;
    14dc:	29 ee       	ldi	r18, 0xE9	; 233
    14de:	33 e0       	ldi	r19, 0x03	; 3
    14e0:	80 91 b5 05 	lds	r24, 0x05B5	; 0x8005b5 <TimerFlag>
		break;
		
		case M_Sta:
		if(instruction == 0) // THIS IS FOR THE KEYPAD INSTRUCTION
		{
			if((keyPadEntry[0] == randkeyPadCode[0])&&(keyPadEntry[1] == randkeyPadCode[1])&&(keyPadEntry[2] == randkeyPadCode[2])&&(keyPadEntry[3] == randkeyPadCode[3]))
    14e4:	88 23       	and	r24, r24
    14e6:	e1 f3       	breq	.-8      	; 0x14e0 <M_tick+0x65c>
    14e8:	10 92 b5 05 	sts	0x05B5, r1	; 0x8005b5 <TimerFlag>
    14ec:	21 50       	subi	r18, 0x01	; 1
    14ee:	31 09       	sbc	r19, r1
    14f0:	b9 f7       	brne	.-18     	; 0x14e0 <M_tick+0x65c>
    14f2:	00 e0       	ldi	r16, 0x00	; 0
    14f4:	10 e0       	ldi	r17, 0x00	; 0
    14f6:	53 c4       	rjmp	.+2214   	; 0x1d9e <M_tick+0xf1a>
    14f8:	90 91 27 01 	lds	r25, 0x0127	; 0x800127 <keyPadEntry>
    14fc:	80 91 23 01 	lds	r24, 0x0123	; 0x800123 <randkeyPadCode>
    1500:	98 13       	cpse	r25, r24
    1502:	13 c0       	rjmp	.+38     	; 0x152a <M_tick+0x6a6>
    1504:	90 91 28 01 	lds	r25, 0x0128	; 0x800128 <keyPadEntry+0x1>
    1508:	80 91 24 01 	lds	r24, 0x0124	; 0x800124 <randkeyPadCode+0x1>
    150c:	98 13       	cpse	r25, r24
    150e:	0d c0       	rjmp	.+26     	; 0x152a <M_tick+0x6a6>
    1510:	90 91 29 01 	lds	r25, 0x0129	; 0x800129 <keyPadEntry+0x2>
			{
				iCompleted = 1;
			}
			else if(keyPressed == '*')
    1514:	80 91 25 01 	lds	r24, 0x0125	; 0x800125 <randkeyPadCode+0x2>
    1518:	98 13       	cpse	r25, r24
    151a:	07 c0       	rjmp	.+14     	; 0x152a <M_tick+0x6a6>
			{
				clearKeyCode();
    151c:	90 91 2a 01 	lds	r25, 0x012A	; 0x80012a <keyPadEntry+0x3>
				keyPadIndex = 0;
    1520:	80 91 26 01 	lds	r24, 0x0126	; 0x800126 <randkeyPadCode+0x3>
				rTick = 0;
			}
		}
		
		
		if(iCompleted == 1) // if instruction was completed
    1524:	98 17       	cp	r25, r24
    1526:	09 f4       	brne	.+2      	; 0x152a <M_tick+0x6a6>
    1528:	fc c0       	rjmp	.+504    	; 0x1722 <M_tick+0x89e>
    152a:	80 91 c9 05 	lds	r24, 0x05C9	; 0x8005c9 <keyPressed>
    152e:	8a 32       	cpi	r24, 0x2A	; 42
			else if(keyPressed == '*')
			{
				clearKeyCode();
				keyPadIndex = 0;
			}
			else if (keyPressed == '\0')
    1530:	49 f4       	brne	.+18     	; 0x1544 <M_tick+0x6c0>
    1532:	4b dc       	rcall	.-1898   	; 0xdca <clearKeyCode>
    1534:	10 92 ab 05 	sts	0x05AB, r1	; 0x8005ab <keyPadIndex>
			{
			}
			else
			{
				if(keyPressed == '0')
    1538:	80 91 cd 05 	lds	r24, 0x05CD	; 0x8005cd <iCompleted>
				{
					keyPadEntry[keyPadIndex] = 0;
    153c:	81 30       	cpi	r24, 0x01	; 1
    153e:	09 f0       	breq	.+2      	; 0x1542 <M_tick+0x6be>
    1540:	b8 c2       	rjmp	.+1392   	; 0x1ab2 <M_tick+0xc2e>
    1542:	ef c0       	rjmp	.+478    	; 0x1722 <M_tick+0x89e>
    1544:	88 23       	and	r24, r24
    1546:	09 f4       	brne	.+2      	; 0x154a <M_tick+0x6c6>
				}
				else if(keyPressed == '1')
    1548:	0a c4       	rjmp	.+2068   	; 0x1d5e <M_tick+0xeda>
    154a:	80 33       	cpi	r24, 0x30	; 48
				{
					keyPadEntry[keyPadIndex] = 1;
    154c:	39 f4       	brne	.+14     	; 0x155c <M_tick+0x6d8>
    154e:	e0 91 ab 05 	lds	r30, 0x05AB	; 0x8005ab <keyPadIndex>
    1552:	f0 e0       	ldi	r31, 0x00	; 0
    1554:	e9 5d       	subi	r30, 0xD9	; 217
    1556:	fe 4f       	sbci	r31, 0xFE	; 254
    1558:	10 82       	st	Z, r1
    155a:	59 c0       	rjmp	.+178    	; 0x160e <M_tick+0x78a>
				}
				else if(keyPressed == '2')
    155c:	81 33       	cpi	r24, 0x31	; 49
    155e:	41 f4       	brne	.+16     	; 0x1570 <M_tick+0x6ec>
				{
					keyPadEntry[keyPadIndex] = 2;
    1560:	e0 91 ab 05 	lds	r30, 0x05AB	; 0x8005ab <keyPadIndex>
    1564:	f0 e0       	ldi	r31, 0x00	; 0
    1566:	e9 5d       	subi	r30, 0xD9	; 217
    1568:	fe 4f       	sbci	r31, 0xFE	; 254
    156a:	81 e0       	ldi	r24, 0x01	; 1
    156c:	80 83       	st	Z, r24
    156e:	4f c0       	rjmp	.+158    	; 0x160e <M_tick+0x78a>
				}
				else if(keyPressed == '3')
    1570:	82 33       	cpi	r24, 0x32	; 50
    1572:	41 f4       	brne	.+16     	; 0x1584 <M_tick+0x700>
				{
					keyPadEntry[keyPadIndex] = 3;
    1574:	e0 91 ab 05 	lds	r30, 0x05AB	; 0x8005ab <keyPadIndex>
    1578:	f0 e0       	ldi	r31, 0x00	; 0
    157a:	e9 5d       	subi	r30, 0xD9	; 217
    157c:	fe 4f       	sbci	r31, 0xFE	; 254
    157e:	82 e0       	ldi	r24, 0x02	; 2
    1580:	80 83       	st	Z, r24
    1582:	45 c0       	rjmp	.+138    	; 0x160e <M_tick+0x78a>
				}
				else if(keyPressed == '4')
    1584:	83 33       	cpi	r24, 0x33	; 51
    1586:	41 f4       	brne	.+16     	; 0x1598 <M_tick+0x714>
				{
					keyPadEntry[keyPadIndex] = 4;
    1588:	e0 91 ab 05 	lds	r30, 0x05AB	; 0x8005ab <keyPadIndex>
    158c:	f0 e0       	ldi	r31, 0x00	; 0
    158e:	e9 5d       	subi	r30, 0xD9	; 217
    1590:	fe 4f       	sbci	r31, 0xFE	; 254
    1592:	83 e0       	ldi	r24, 0x03	; 3
    1594:	80 83       	st	Z, r24
    1596:	3b c0       	rjmp	.+118    	; 0x160e <M_tick+0x78a>
				}
				else if(keyPressed == '5')
    1598:	84 33       	cpi	r24, 0x34	; 52
    159a:	41 f4       	brne	.+16     	; 0x15ac <M_tick+0x728>
				{
					keyPadEntry[keyPadIndex] = 5;
    159c:	e0 91 ab 05 	lds	r30, 0x05AB	; 0x8005ab <keyPadIndex>
    15a0:	f0 e0       	ldi	r31, 0x00	; 0
    15a2:	e9 5d       	subi	r30, 0xD9	; 217
    15a4:	fe 4f       	sbci	r31, 0xFE	; 254
    15a6:	84 e0       	ldi	r24, 0x04	; 4
    15a8:	80 83       	st	Z, r24
    15aa:	31 c0       	rjmp	.+98     	; 0x160e <M_tick+0x78a>
				}
				else if(keyPressed == '6')
    15ac:	85 33       	cpi	r24, 0x35	; 53
    15ae:	41 f4       	brne	.+16     	; 0x15c0 <M_tick+0x73c>
				{
					keyPadEntry[keyPadIndex] = 6;
    15b0:	e0 91 ab 05 	lds	r30, 0x05AB	; 0x8005ab <keyPadIndex>
    15b4:	f0 e0       	ldi	r31, 0x00	; 0
    15b6:	e9 5d       	subi	r30, 0xD9	; 217
    15b8:	fe 4f       	sbci	r31, 0xFE	; 254
    15ba:	85 e0       	ldi	r24, 0x05	; 5
    15bc:	80 83       	st	Z, r24
    15be:	27 c0       	rjmp	.+78     	; 0x160e <M_tick+0x78a>
				}
				else if(keyPressed == '7')
    15c0:	86 33       	cpi	r24, 0x36	; 54
    15c2:	41 f4       	brne	.+16     	; 0x15d4 <M_tick+0x750>
				{
					keyPadEntry[keyPadIndex] = 7;
    15c4:	e0 91 ab 05 	lds	r30, 0x05AB	; 0x8005ab <keyPadIndex>
    15c8:	f0 e0       	ldi	r31, 0x00	; 0
    15ca:	e9 5d       	subi	r30, 0xD9	; 217
    15cc:	fe 4f       	sbci	r31, 0xFE	; 254
    15ce:	86 e0       	ldi	r24, 0x06	; 6
    15d0:	80 83       	st	Z, r24
    15d2:	1d c0       	rjmp	.+58     	; 0x160e <M_tick+0x78a>
				}
				else if(keyPressed == '8')
    15d4:	87 33       	cpi	r24, 0x37	; 55
    15d6:	41 f4       	brne	.+16     	; 0x15e8 <M_tick+0x764>
				{
					keyPadEntry[keyPadIndex] = 8;
    15d8:	e0 91 ab 05 	lds	r30, 0x05AB	; 0x8005ab <keyPadIndex>
    15dc:	f0 e0       	ldi	r31, 0x00	; 0
    15de:	e9 5d       	subi	r30, 0xD9	; 217
    15e0:	fe 4f       	sbci	r31, 0xFE	; 254
    15e2:	87 e0       	ldi	r24, 0x07	; 7
    15e4:	80 83       	st	Z, r24
    15e6:	13 c0       	rjmp	.+38     	; 0x160e <M_tick+0x78a>
				}
				else if(keyPressed == '9')
    15e8:	88 33       	cpi	r24, 0x38	; 56
    15ea:	41 f4       	brne	.+16     	; 0x15fc <M_tick+0x778>
				{
					keyPadEntry[keyPadIndex] = 9;
    15ec:	e0 91 ab 05 	lds	r30, 0x05AB	; 0x8005ab <keyPadIndex>
    15f0:	f0 e0       	ldi	r31, 0x00	; 0
    15f2:	e9 5d       	subi	r30, 0xD9	; 217
    15f4:	fe 4f       	sbci	r31, 0xFE	; 254
    15f6:	88 e0       	ldi	r24, 0x08	; 8
    15f8:	80 83       	st	Z, r24
				}
				if(keyPadIndex < 3)
    15fa:	09 c0       	rjmp	.+18     	; 0x160e <M_tick+0x78a>
    15fc:	89 33       	cpi	r24, 0x39	; 57
    15fe:	39 f4       	brne	.+14     	; 0x160e <M_tick+0x78a>
    1600:	e0 91 ab 05 	lds	r30, 0x05AB	; 0x8005ab <keyPadIndex>
				{
					keyPadIndex++;
    1604:	f0 e0       	ldi	r31, 0x00	; 0
    1606:	e9 5d       	subi	r30, 0xD9	; 217
    1608:	fe 4f       	sbci	r31, 0xFE	; 254
				}
				else
				{
					keyPadIndex = 3;
    160a:	89 e0       	ldi	r24, 0x09	; 9
    160c:	80 83       	st	Z, r24
    160e:	80 91 ab 05 	lds	r24, 0x05AB	; 0x8005ab <keyPadIndex>
				}
			}
		}
		else if(instruction == 1) // THIS IS FOR THE WEIGHT SENSOR INSTRUCTION
    1612:	83 30       	cpi	r24, 0x03	; 3
    1614:	20 f4       	brcc	.+8      	; 0x161e <M_tick+0x79a>
    1616:	8f 5f       	subi	r24, 0xFF	; 255
		{
			if((currW < fullW) && (weightToggle == 0))
    1618:	80 93 ab 05 	sts	0x05AB, r24	; 0x8005ab <keyPadIndex>
    161c:	a0 c3       	rjmp	.+1856   	; 0x1d5e <M_tick+0xeda>
    161e:	83 e0       	ldi	r24, 0x03	; 3
    1620:	80 93 ab 05 	sts	0x05AB, r24	; 0x8005ab <keyPadIndex>
    1624:	9c c3       	rjmp	.+1848   	; 0x1d5e <M_tick+0xeda>
    1626:	81 30       	cpi	r24, 0x01	; 1
    1628:	09 f0       	breq	.+2      	; 0x162c <M_tick+0x7a8>
    162a:	41 c0       	rjmp	.+130    	; 0x16ae <M_tick+0x82a>
    162c:	80 91 a1 05 	lds	r24, 0x05A1	; 0x8005a1 <currW>
    1630:	90 91 a2 05 	lds	r25, 0x05A2	; 0x8005a2 <currW+0x1>
    1634:	20 91 1d 01 	lds	r18, 0x011D	; 0x80011d <fullW>
			{
				wTick++;
    1638:	30 91 1e 01 	lds	r19, 0x011E	; 0x80011e <fullW+0x1>
    163c:	82 17       	cp	r24, r18
    163e:	93 07       	cpc	r25, r19
    1640:	88 f4       	brcc	.+34     	; 0x1664 <M_tick+0x7e0>
    1642:	40 91 b0 05 	lds	r20, 0x05B0	; 0x8005b0 <weightToggle>
    1646:	41 11       	cpse	r20, r1
				if((wTick >= 5))
    1648:	0d c0       	rjmp	.+26     	; 0x1664 <M_tick+0x7e0>
    164a:	80 91 9f 05 	lds	r24, 0x059F	; 0x80059f <wTick>
    164e:	90 91 a0 05 	lds	r25, 0x05A0	; 0x8005a0 <wTick+0x1>
				{
					iCompleted = 1;
				}
			}
			else if((currW < halfW)&& (weightToggle == 1) && (currW >= fullW))
    1652:	01 96       	adiw	r24, 0x01	; 1
    1654:	90 93 a0 05 	sts	0x05A0, r25	; 0x8005a0 <wTick+0x1>
    1658:	80 93 9f 05 	sts	0x059F, r24	; 0x80059f <wTick>
    165c:	05 97       	sbiw	r24, 0x05	; 5
    165e:	08 f0       	brcs	.+2      	; 0x1662 <M_tick+0x7de>
    1660:	60 c0       	rjmp	.+192    	; 0x1722 <M_tick+0x89e>
    1662:	91 c3       	rjmp	.+1826   	; 0x1d86 <M_tick+0xf02>
    1664:	40 91 1b 01 	lds	r20, 0x011B	; 0x80011b <halfW>
    1668:	50 91 1c 01 	lds	r21, 0x011C	; 0x80011c <halfW+0x1>
			{
				wTick++;
    166c:	84 17       	cp	r24, r20
    166e:	95 07       	cpc	r25, r21
    1670:	a0 f4       	brcc	.+40     	; 0x169a <M_tick+0x816>
    1672:	40 91 b0 05 	lds	r20, 0x05B0	; 0x8005b0 <weightToggle>
    1676:	41 30       	cpi	r20, 0x01	; 1
    1678:	81 f4       	brne	.+32     	; 0x169a <M_tick+0x816>
    167a:	82 17       	cp	r24, r18
    167c:	93 07       	cpc	r25, r19
				if(wTick >= 5)
    167e:	68 f0       	brcs	.+26     	; 0x169a <M_tick+0x816>
    1680:	80 91 9f 05 	lds	r24, 0x059F	; 0x80059f <wTick>
    1684:	90 91 a0 05 	lds	r25, 0x05A0	; 0x8005a0 <wTick+0x1>
					iCompleted = 1;
				}
			}
			else
			{
				wTick = 0;
    1688:	01 96       	adiw	r24, 0x01	; 1
    168a:	90 93 a0 05 	sts	0x05A0, r25	; 0x8005a0 <wTick+0x1>
				rTick = 0;
			}
		}
		
		
		if(iCompleted == 1) // if instruction was completed
    168e:	80 93 9f 05 	sts	0x059F, r24	; 0x80059f <wTick>
    1692:	05 97       	sbiw	r24, 0x05	; 5
    1694:	08 f0       	brcs	.+2      	; 0x1698 <M_tick+0x814>
    1696:	45 c0       	rjmp	.+138    	; 0x1722 <M_tick+0x89e>
    1698:	7c c3       	rjmp	.+1784   	; 0x1d92 <M_tick+0xf0e>
			else
			{
				wTick = 0;
			}
		}
		else if(instruction == 2) // THIS IS FOR THE DIRECTION INSTRUCTION
    169a:	10 92 a0 05 	sts	0x05A0, r1	; 0x8005a0 <wTick+0x1>
		{
			if(directionToggle == direction)
    169e:	10 92 9f 05 	sts	0x059F, r1	; 0x80059f <wTick>
    16a2:	80 91 cd 05 	lds	r24, 0x05CD	; 0x8005cd <iCompleted>
    16a6:	81 30       	cpi	r24, 0x01	; 1
    16a8:	09 f0       	breq	.+2      	; 0x16ac <M_tick+0x828>
			{
				jTick++;
    16aa:	3d c2       	rjmp	.+1146   	; 0x1b26 <M_tick+0xca2>
    16ac:	3a c0       	rjmp	.+116    	; 0x1722 <M_tick+0x89e>
    16ae:	82 30       	cpi	r24, 0x02	; 2
    16b0:	b9 f4       	brne	.+46     	; 0x16e0 <M_tick+0x85c>
    16b2:	90 91 9b 05 	lds	r25, 0x059B	; 0x80059b <directionToggle>
    16b6:	80 91 9c 05 	lds	r24, 0x059C	; 0x80059c <direction>
    16ba:	98 13       	cpse	r25, r24
				if(jTick >= 5)
    16bc:	0c c0       	rjmp	.+24     	; 0x16d6 <M_tick+0x852>
    16be:	80 91 99 05 	lds	r24, 0x0599	; 0x800599 <jTick>
					iCompleted = 1;
				}
			}
			else
			{
				jTick = 0;
    16c2:	90 91 9a 05 	lds	r25, 0x059A	; 0x80059a <jTick+0x1>
    16c6:	01 96       	adiw	r24, 0x01	; 1
    16c8:	90 93 9a 05 	sts	0x059A, r25	; 0x80059a <jTick+0x1>
			}
		}
		else if(instruction == 3) // THIS IS FOR THE ROTARY INSTRUCTION
    16cc:	80 93 99 05 	sts	0x0599, r24	; 0x800599 <jTick>
		{
			if(rotPos == randPos)
    16d0:	05 97       	sbiw	r24, 0x05	; 5
    16d2:	38 f5       	brcc	.+78     	; 0x1722 <M_tick+0x89e>
    16d4:	4a c3       	rjmp	.+1684   	; 0x1d6a <M_tick+0xee6>
    16d6:	10 92 9a 05 	sts	0x059A, r1	; 0x80059a <jTick+0x1>
    16da:	10 92 99 05 	sts	0x0599, r1	; 0x800599 <jTick>
    16de:	45 c3       	rjmp	.+1674   	; 0x1d6a <M_tick+0xee6>
    16e0:	83 30       	cpi	r24, 0x03	; 3
			{
				rTick++;
    16e2:	09 f0       	breq	.+2      	; 0x16e6 <M_tick+0x862>
    16e4:	48 c3       	rjmp	.+1680   	; 0x1d76 <M_tick+0xef2>
    16e6:	20 91 91 05 	lds	r18, 0x0591	; 0x800591 <rotPos>
    16ea:	30 91 92 05 	lds	r19, 0x0592	; 0x800592 <rotPos+0x1>
    16ee:	80 91 89 05 	lds	r24, 0x0589	; 0x800589 <randPos>
    16f2:	90 91 8a 05 	lds	r25, 0x058A	; 0x80058a <randPos+0x1>
					iCompleted = 1;
			}
			else
			{
				rTick = 0;
    16f6:	28 17       	cp	r18, r24
    16f8:	39 07       	cpc	r19, r25
    16fa:	51 f4       	brne	.+20     	; 0x1710 <M_tick+0x88c>
    16fc:	80 91 8b 05 	lds	r24, 0x058B	; 0x80058b <rTick>
			}
		}
		
		
		if(iCompleted == 1) // if instruction was completed
    1700:	90 91 8c 05 	lds	r25, 0x058C	; 0x80058c <rTick+0x1>
    1704:	01 96       	adiw	r24, 0x01	; 1
    1706:	90 93 8c 05 	sts	0x058C, r25	; 0x80058c <rTick+0x1>
		{
			numInstruc--;
    170a:	80 93 8b 05 	sts	0x058B, r24	; 0x80058b <rTick>
    170e:	09 c0       	rjmp	.+18     	; 0x1722 <M_tick+0x89e>
    1710:	10 92 8c 05 	sts	0x058C, r1	; 0x80058c <rTick+0x1>
			iCompleted = 0;
    1714:	10 92 8b 05 	sts	0x058B, r1	; 0x80058b <rTick>
			instruction = rand() % 4;
    1718:	80 91 cd 05 	lds	r24, 0x05CD	; 0x8005cd <iCompleted>
    171c:	81 30       	cpi	r24, 0x01	; 1
    171e:	09 f0       	breq	.+2      	; 0x1722 <M_tick+0x89e>
    1720:	ad c2       	rjmp	.+1370   	; 0x1c7c <M_tick+0xdf8>
    1722:	80 91 22 01 	lds	r24, 0x0122	; 0x800122 <numInstruc>
    1726:	81 50       	subi	r24, 0x01	; 1
    1728:	80 93 22 01 	sts	0x0122, r24	; 0x800122 <numInstruc>
    172c:	10 92 cd 05 	sts	0x05CD, r1	; 0x8005cd <iCompleted>
			/*while(instruction == 1)
			{
				instruction = rand() % 4;
			}*/
			if(instruction == 0)
    1730:	f6 d4       	rcall	.+2540   	; 0x211e <rand>
			{
				clearKeyCode();
    1732:	83 70       	andi	r24, 0x03	; 3
    1734:	90 78       	andi	r25, 0x80	; 128
				keyPadIndex = 0;
    1736:	99 23       	and	r25, r25
    1738:	24 f4       	brge	.+8      	; 0x1742 <M_tick+0x8be>
				randomKeyCode();
    173a:	01 97       	sbiw	r24, 0x01	; 1
    173c:	8c 6f       	ori	r24, 0xFC	; 252
				char longword[50] = "Enter code:";
    173e:	9f 6f       	ori	r25, 0xFF	; 255
    1740:	01 96       	adiw	r24, 0x01	; 1
    1742:	80 93 c4 05 	sts	0x05C4, r24	; 0x8005c4 <instruction>
    1746:	81 11       	cpse	r24, r1
    1748:	38 c0       	rjmp	.+112    	; 0x17ba <M_tick+0x936>
    174a:	3f db       	rcall	.-2434   	; 0xdca <clearKeyCode>
    174c:	10 92 ab 05 	sts	0x05AB, r1	; 0x8005ab <keyPadIndex>
    1750:	44 db       	rcall	.-2424   	; 0xdda <randomKeyCode>
    1752:	8c e0       	ldi	r24, 0x0C	; 12
    1754:	e1 e7       	ldi	r30, 0x71	; 113
    1756:	f1 e0       	ldi	r31, 0x01	; 1
    1758:	de 01       	movw	r26, r28
    175a:	11 96       	adiw	r26, 0x01	; 1
				LCD_DisplayString(1,longword);
    175c:	01 90       	ld	r0, Z+
    175e:	0d 92       	st	X+, r0
    1760:	8a 95       	dec	r24
    1762:	e1 f7       	brne	.-8      	; 0x175c <M_tick+0x8d8>
    1764:	fe 01       	movw	r30, r28
    1766:	3d 96       	adiw	r30, 0x0d	; 13
				
				LCD_Cursor(12);
    1768:	86 e2       	ldi	r24, 0x26	; 38
    176a:	df 01       	movw	r26, r30
    176c:	1d 92       	st	X+, r1
				LCD_WriteData(randkeyPadCode[0] + '0');
    176e:	8a 95       	dec	r24
    1770:	e9 f7       	brne	.-6      	; 0x176c <M_tick+0x8e8>
    1772:	be 01       	movw	r22, r28
    1774:	6f 5f       	subi	r22, 0xFF	; 255
    1776:	7f 4f       	sbci	r23, 0xFF	; 255
    1778:	81 e0       	ldi	r24, 0x01	; 1
    177a:	0e 94 ce 01 	call	0x39c	; 0x39c <LCD_DisplayString>
				LCD_WriteData(randkeyPadCode[1] + '0');
    177e:	8c e0       	ldi	r24, 0x0C	; 12
    1780:	0e 94 ae 01 	call	0x35c	; 0x35c <LCD_Cursor>
    1784:	03 e2       	ldi	r16, 0x23	; 35
    1786:	11 e0       	ldi	r17, 0x01	; 1
				LCD_WriteData(randkeyPadCode[2] + '0');
    1788:	f8 01       	movw	r30, r16
    178a:	80 81       	ld	r24, Z
    178c:	80 5d       	subi	r24, 0xD0	; 208
    178e:	0e 94 c5 01 	call	0x38a	; 0x38a <LCD_WriteData>
				LCD_WriteData(randkeyPadCode[3] + '0');
    1792:	d8 01       	movw	r26, r16
    1794:	11 96       	adiw	r26, 0x01	; 1
    1796:	8c 91       	ld	r24, X
    1798:	80 5d       	subi	r24, 0xD0	; 208
    179a:	0e 94 c5 01 	call	0x38a	; 0x38a <LCD_WriteData>
    179e:	f8 01       	movw	r30, r16
    17a0:	82 81       	ldd	r24, Z+2	; 0x02
    17a2:	80 5d       	subi	r24, 0xD0	; 208
				
			}
			else if(instruction == 1)
    17a4:	0e 94 c5 01 	call	0x38a	; 0x38a <LCD_WriteData>
    17a8:	d8 01       	movw	r26, r16
			{
				ADC_init();
    17aa:	13 96       	adiw	r26, 0x03	; 3
    17ac:	8c 91       	ld	r24, X
				wTick = 0;
    17ae:	80 5d       	subi	r24, 0xD0	; 208
    17b0:	0e 94 c5 01 	call	0x38a	; 0x38a <LCD_WriteData>
    17b4:	01 e0       	ldi	r16, 0x01	; 1
				weightToggle = rand() % 2;
    17b6:	10 e0       	ldi	r17, 0x00	; 0
    17b8:	f2 c2       	rjmp	.+1508   	; 0x1d9e <M_tick+0xf1a>
    17ba:	81 30       	cpi	r24, 0x01	; 1
    17bc:	09 f0       	breq	.+2      	; 0x17c0 <M_tick+0x93c>
    17be:	45 c0       	rjmp	.+138    	; 0x184a <M_tick+0x9c6>
    17c0:	0e 94 40 02 	call	0x480	; 0x480 <ADC_init>
    17c4:	10 92 a0 05 	sts	0x05A0, r1	; 0x8005a0 <wTick+0x1>
    17c8:	10 92 9f 05 	sts	0x059F, r1	; 0x80059f <wTick>
    17cc:	a8 d4       	rcall	.+2384   	; 0x211e <rand>
				if(weightToggle == 0)
    17ce:	81 70       	andi	r24, 0x01	; 1
    17d0:	90 78       	andi	r25, 0x80	; 128
				{
					char longword[50] = "Press acceleration hard. ";
    17d2:	99 23       	and	r25, r25
    17d4:	24 f4       	brge	.+8      	; 0x17de <M_tick+0x95a>
    17d6:	01 97       	sbiw	r24, 0x01	; 1
    17d8:	8e 6f       	ori	r24, 0xFE	; 254
    17da:	9f 6f       	ori	r25, 0xFF	; 255
    17dc:	01 96       	adiw	r24, 0x01	; 1
    17de:	80 93 b0 05 	sts	0x05B0, r24	; 0x8005b0 <weightToggle>
    17e2:	81 11       	cpse	r24, r1
    17e4:	19 c0       	rjmp	.+50     	; 0x1818 <M_tick+0x994>
    17e6:	8a e1       	ldi	r24, 0x1A	; 26
    17e8:	e5 e6       	ldi	r30, 0x65	; 101
    17ea:	f3 e0       	ldi	r31, 0x03	; 3
    17ec:	de 01       	movw	r26, r28
    17ee:	11 96       	adiw	r26, 0x01	; 1
					LCD_DisplayString(1,longword);
    17f0:	01 90       	ld	r0, Z+
    17f2:	0d 92       	st	X+, r0
    17f4:	8a 95       	dec	r24
    17f6:	e1 f7       	brne	.-8      	; 0x17f0 <M_tick+0x96c>
    17f8:	fe 01       	movw	r30, r28
    17fa:	7b 96       	adiw	r30, 0x1b	; 27
    17fc:	88 e1       	ldi	r24, 0x18	; 24
    17fe:	df 01       	movw	r26, r30
    1800:	1d 92       	st	X+, r1
				}
				else
				{
					char longword[50] = "Press acceleration moderately.";
    1802:	8a 95       	dec	r24
    1804:	e9 f7       	brne	.-6      	; 0x1800 <M_tick+0x97c>
    1806:	be 01       	movw	r22, r28
    1808:	6f 5f       	subi	r22, 0xFF	; 255
    180a:	7f 4f       	sbci	r23, 0xFF	; 255
    180c:	81 e0       	ldi	r24, 0x01	; 1
    180e:	0e 94 ce 01 	call	0x39c	; 0x39c <LCD_DisplayString>
    1812:	01 e0       	ldi	r16, 0x01	; 1
    1814:	10 e0       	ldi	r17, 0x00	; 0
    1816:	c3 c2       	rjmp	.+1414   	; 0x1d9e <M_tick+0xf1a>
    1818:	8f e1       	ldi	r24, 0x1F	; 31
    181a:	e7 e9       	ldi	r30, 0x97	; 151
    181c:	f3 e0       	ldi	r31, 0x03	; 3
    181e:	de 01       	movw	r26, r28
    1820:	11 96       	adiw	r26, 0x01	; 1
					LCD_DisplayString(1,longword);
    1822:	01 90       	ld	r0, Z+
    1824:	0d 92       	st	X+, r0
    1826:	8a 95       	dec	r24
    1828:	e1 f7       	brne	.-8      	; 0x1822 <M_tick+0x99e>
    182a:	fe 01       	movw	r30, r28
    182c:	b0 96       	adiw	r30, 0x20	; 32
    182e:	83 e1       	ldi	r24, 0x13	; 19
    1830:	df 01       	movw	r26, r30
    1832:	1d 92       	st	X+, r1
				}
			}
			else if(instruction == 2)
    1834:	8a 95       	dec	r24
    1836:	e9 f7       	brne	.-6      	; 0x1832 <M_tick+0x9ae>
    1838:	be 01       	movw	r22, r28
			{
				InitADC();
    183a:	6f 5f       	subi	r22, 0xFF	; 255
    183c:	7f 4f       	sbci	r23, 0xFF	; 255
				jTick = 0;
    183e:	81 e0       	ldi	r24, 0x01	; 1
    1840:	0e 94 ce 01 	call	0x39c	; 0x39c <LCD_DisplayString>
    1844:	01 e0       	ldi	r16, 0x01	; 1
				directionToggle = rand() % 4;
    1846:	10 e0       	ldi	r17, 0x00	; 0
    1848:	aa c2       	rjmp	.+1364   	; 0x1d9e <M_tick+0xf1a>
    184a:	82 30       	cpi	r24, 0x02	; 2
    184c:	09 f0       	breq	.+2      	; 0x1850 <M_tick+0x9cc>
    184e:	7e c0       	rjmp	.+252    	; 0x194c <M_tick+0xac8>
    1850:	0e 94 49 02 	call	0x492	; 0x492 <InitADC>
    1854:	10 92 9a 05 	sts	0x059A, r1	; 0x80059a <jTick+0x1>
    1858:	10 92 99 05 	sts	0x0599, r1	; 0x800599 <jTick>
    185c:	60 d4       	rcall	.+2240   	; 0x211e <rand>
				if(directionToggle == 0)
    185e:	83 70       	andi	r24, 0x03	; 3
    1860:	90 78       	andi	r25, 0x80	; 128
				{
					char longword[50] = "Steer Right.";
    1862:	99 23       	and	r25, r25
    1864:	24 f4       	brge	.+8      	; 0x186e <M_tick+0x9ea>
    1866:	01 97       	sbiw	r24, 0x01	; 1
    1868:	8c 6f       	ori	r24, 0xFC	; 252
    186a:	9f 6f       	ori	r25, 0xFF	; 255
    186c:	01 96       	adiw	r24, 0x01	; 1
    186e:	80 93 9b 05 	sts	0x059B, r24	; 0x80059b <directionToggle>
    1872:	81 11       	cpse	r24, r1
    1874:	19 c0       	rjmp	.+50     	; 0x18a8 <M_tick+0xa24>
    1876:	8d e0       	ldi	r24, 0x0D	; 13
    1878:	e7 e0       	ldi	r30, 0x07	; 7
    187a:	f2 e0       	ldi	r31, 0x02	; 2
    187c:	de 01       	movw	r26, r28
    187e:	11 96       	adiw	r26, 0x01	; 1
    1880:	01 90       	ld	r0, Z+
					LCD_DisplayString(1,longword);
    1882:	0d 92       	st	X+, r0
    1884:	8a 95       	dec	r24
    1886:	e1 f7       	brne	.-8      	; 0x1880 <M_tick+0x9fc>
    1888:	fe 01       	movw	r30, r28
    188a:	3e 96       	adiw	r30, 0x0e	; 14
    188c:	85 e2       	ldi	r24, 0x25	; 37
    188e:	df 01       	movw	r26, r30
    1890:	1d 92       	st	X+, r1
    1892:	8a 95       	dec	r24
				}
				else if(directionToggle == 1)
    1894:	e9 f7       	brne	.-6      	; 0x1890 <M_tick+0xa0c>
    1896:	be 01       	movw	r22, r28
				{
					char longword[50] = "Steer Left.";
    1898:	6f 5f       	subi	r22, 0xFF	; 255
    189a:	7f 4f       	sbci	r23, 0xFF	; 255
    189c:	81 e0       	ldi	r24, 0x01	; 1
    189e:	0e 94 ce 01 	call	0x39c	; 0x39c <LCD_DisplayString>
    18a2:	01 e0       	ldi	r16, 0x01	; 1
    18a4:	10 e0       	ldi	r17, 0x00	; 0
    18a6:	7b c2       	rjmp	.+1270   	; 0x1d9e <M_tick+0xf1a>
    18a8:	81 30       	cpi	r24, 0x01	; 1
    18aa:	c9 f4       	brne	.+50     	; 0x18de <M_tick+0xa5a>
    18ac:	8c e0       	ldi	r24, 0x0C	; 12
    18ae:	e9 e3       	ldi	r30, 0x39	; 57
    18b0:	f2 e0       	ldi	r31, 0x02	; 2
    18b2:	de 01       	movw	r26, r28
    18b4:	11 96       	adiw	r26, 0x01	; 1
    18b6:	01 90       	ld	r0, Z+
					LCD_DisplayString(1,longword);
    18b8:	0d 92       	st	X+, r0
    18ba:	8a 95       	dec	r24
    18bc:	e1 f7       	brne	.-8      	; 0x18b6 <M_tick+0xa32>
    18be:	fe 01       	movw	r30, r28
    18c0:	3d 96       	adiw	r30, 0x0d	; 13
    18c2:	86 e2       	ldi	r24, 0x26	; 38
    18c4:	df 01       	movw	r26, r30
    18c6:	1d 92       	st	X+, r1
    18c8:	8a 95       	dec	r24
				}
				else if(directionToggle == 2)
    18ca:	e9 f7       	brne	.-6      	; 0x18c6 <M_tick+0xa42>
    18cc:	be 01       	movw	r22, r28
				{
					char longword[50] = "Steer Up.";
    18ce:	6f 5f       	subi	r22, 0xFF	; 255
    18d0:	7f 4f       	sbci	r23, 0xFF	; 255
    18d2:	81 e0       	ldi	r24, 0x01	; 1
    18d4:	0e 94 ce 01 	call	0x39c	; 0x39c <LCD_DisplayString>
    18d8:	01 e0       	ldi	r16, 0x01	; 1
    18da:	10 e0       	ldi	r17, 0x00	; 0
    18dc:	60 c2       	rjmp	.+1216   	; 0x1d9e <M_tick+0xf1a>
    18de:	82 30       	cpi	r24, 0x02	; 2
    18e0:	c9 f4       	brne	.+50     	; 0x1914 <M_tick+0xa90>
    18e2:	8a e0       	ldi	r24, 0x0A	; 10
    18e4:	eb e6       	ldi	r30, 0x6B	; 107
    18e6:	f2 e0       	ldi	r31, 0x02	; 2
    18e8:	de 01       	movw	r26, r28
    18ea:	11 96       	adiw	r26, 0x01	; 1
					LCD_DisplayString(1,longword);
    18ec:	01 90       	ld	r0, Z+
    18ee:	0d 92       	st	X+, r0
    18f0:	8a 95       	dec	r24
    18f2:	e1 f7       	brne	.-8      	; 0x18ec <M_tick+0xa68>
    18f4:	fe 01       	movw	r30, r28
    18f6:	3b 96       	adiw	r30, 0x0b	; 11
    18f8:	88 e2       	ldi	r24, 0x28	; 40
				}
				else if(directionToggle == 3)
    18fa:	df 01       	movw	r26, r30
    18fc:	1d 92       	st	X+, r1
    18fe:	8a 95       	dec	r24
				{
					char longword[50] = "Steer Down.";
    1900:	e9 f7       	brne	.-6      	; 0x18fc <M_tick+0xa78>
    1902:	be 01       	movw	r22, r28
    1904:	6f 5f       	subi	r22, 0xFF	; 255
    1906:	7f 4f       	sbci	r23, 0xFF	; 255
    1908:	81 e0       	ldi	r24, 0x01	; 1
    190a:	0e 94 ce 01 	call	0x39c	; 0x39c <LCD_DisplayString>
    190e:	01 e0       	ldi	r16, 0x01	; 1
    1910:	10 e0       	ldi	r17, 0x00	; 0
    1912:	45 c2       	rjmp	.+1162   	; 0x1d9e <M_tick+0xf1a>
    1914:	83 30       	cpi	r24, 0x03	; 3
    1916:	09 f0       	breq	.+2      	; 0x191a <M_tick+0xa96>
    1918:	0a c2       	rjmp	.+1044   	; 0x1d2e <M_tick+0xeaa>
    191a:	8c e0       	ldi	r24, 0x0C	; 12
    191c:	ed e9       	ldi	r30, 0x9D	; 157
    191e:	f2 e0       	ldi	r31, 0x02	; 2
					LCD_DisplayString(1,longword);
    1920:	de 01       	movw	r26, r28
    1922:	11 96       	adiw	r26, 0x01	; 1
    1924:	01 90       	ld	r0, Z+
    1926:	0d 92       	st	X+, r0
    1928:	8a 95       	dec	r24
    192a:	e1 f7       	brne	.-8      	; 0x1924 <M_tick+0xaa0>
    192c:	fe 01       	movw	r30, r28
    192e:	3d 96       	adiw	r30, 0x0d	; 13
    1930:	86 e2       	ldi	r24, 0x26	; 38
				}
			}
			else if(instruction == 3)
    1932:	df 01       	movw	r26, r30
    1934:	1d 92       	st	X+, r1
    1936:	8a 95       	dec	r24
			{
				ADC_init();
    1938:	e9 f7       	brne	.-6      	; 0x1934 <M_tick+0xab0>
    193a:	be 01       	movw	r22, r28
				rTick = 0;
    193c:	6f 5f       	subi	r22, 0xFF	; 255
    193e:	7f 4f       	sbci	r23, 0xFF	; 255
				MAX = 100;
    1940:	81 e0       	ldi	r24, 0x01	; 1
    1942:	0e 94 ce 01 	call	0x39c	; 0x39c <LCD_DisplayString>
    1946:	01 e0       	ldi	r16, 0x01	; 1
    1948:	10 e0       	ldi	r17, 0x00	; 0
    194a:	29 c2       	rjmp	.+1106   	; 0x1d9e <M_tick+0xf1a>
				randPosIndex = rand() % 3;
    194c:	83 30       	cpi	r24, 0x03	; 3
    194e:	09 f0       	breq	.+2      	; 0x1952 <M_tick+0xace>
    1950:	f1 c1       	rjmp	.+994    	; 0x1d34 <M_tick+0xeb0>
    1952:	0e 94 40 02 	call	0x480	; 0x480 <ADC_init>
    1956:	10 92 8c 05 	sts	0x058C, r1	; 0x80058c <rTick+0x1>
    195a:	10 92 8b 05 	sts	0x058B, r1	; 0x80058b <rTick>
				if(randPosIndex == 0)
    195e:	84 e6       	ldi	r24, 0x64	; 100
				{
					randPos = 0;
    1960:	90 e0       	ldi	r25, 0x00	; 0
    1962:	90 93 94 05 	sts	0x0594, r25	; 0x800594 <MAX+0x1>
    1966:	80 93 93 05 	sts	0x0593, r24	; 0x800593 <MAX>
					randPos = 10;
				}
				
				while(randPos == rotPos)
				{
					randPosIndex = rand() % 3;
    196a:	d9 d3       	rcall	.+1970   	; 0x211e <rand>
					{
						randPos = 5;
					}
					else if(randPosIndex == 2)
					{
						randPos = 10;
    196c:	63 e0       	ldi	r22, 0x03	; 3
    196e:	70 e0       	ldi	r23, 0x00	; 0
    1970:	7c d3       	rcall	.+1784   	; 0x206a <__divmodhi4>
    1972:	80 93 88 05 	sts	0x0588, r24	; 0x800588 <randPosIndex>
					{
						randPos = 0;
					}
					else if(randPosIndex == 1)
					{
						randPos = 5;
    1976:	81 11       	cpse	r24, r1
    1978:	11 c0       	rjmp	.+34     	; 0x199c <M_tick+0xb18>
    197a:	10 92 8a 05 	sts	0x058A, r1	; 0x80058a <randPos+0x1>
    197e:	10 92 89 05 	sts	0x0589, r1	; 0x800589 <randPos>
				randPosIndex = rand() % 3;
				if(randPosIndex == 0)
				{
					randPos = 0;
				}
				else if(randPosIndex == 1)
    1982:	03 e0       	ldi	r16, 0x03	; 3
    1984:	10 e0       	ldi	r17, 0x00	; 0
				{
					randPos = 5;
    1986:	0f 2e       	mov	r0, r31
    1988:	fa e0       	ldi	r31, 0x0A	; 10
    198a:	cf 2e       	mov	r12, r31
    198c:	d1 2c       	mov	r13, r1
    198e:	f0 2d       	mov	r31, r0
    1990:	0f 2e       	mov	r0, r31
    1992:	f5 e0       	ldi	r31, 0x05	; 5
				}
				else if(randPosIndex == 2)
    1994:	ef 2e       	mov	r14, r31
    1996:	f1 2c       	mov	r15, r1
				{
					randPos = 10;
    1998:	f0 2d       	mov	r31, r0
    199a:	2b c0       	rjmp	.+86     	; 0x19f2 <M_tick+0xb6e>
    199c:	81 30       	cpi	r24, 0x01	; 1
    199e:	39 f4       	brne	.+14     	; 0x19ae <M_tick+0xb2a>
    19a0:	85 e0       	ldi	r24, 0x05	; 5
    19a2:	90 e0       	ldi	r25, 0x00	; 0
    19a4:	90 93 8a 05 	sts	0x058A, r25	; 0x80058a <randPos+0x1>
				}
				
				while(randPos == rotPos)
				{
					randPosIndex = rand() % 3;
    19a8:	80 93 89 05 	sts	0x0589, r24	; 0x800589 <randPos>
    19ac:	ea cf       	rjmp	.-44     	; 0x1982 <M_tick+0xafe>
    19ae:	82 30       	cpi	r24, 0x02	; 2
    19b0:	41 f7       	brne	.-48     	; 0x1982 <M_tick+0xafe>
    19b2:	8a e0       	ldi	r24, 0x0A	; 10
					if(randPosIndex == 0)
    19b4:	90 e0       	ldi	r25, 0x00	; 0
    19b6:	90 93 8a 05 	sts	0x058A, r25	; 0x80058a <randPos+0x1>
					{
						randPos = 0;
    19ba:	80 93 89 05 	sts	0x0589, r24	; 0x800589 <randPos>
    19be:	e1 cf       	rjmp	.-62     	; 0x1982 <M_tick+0xafe>
    19c0:	ae d3       	rcall	.+1884   	; 0x211e <rand>
					}
					else if(randPosIndex == 1)
    19c2:	b8 01       	movw	r22, r16
    19c4:	52 d3       	rcall	.+1700   	; 0x206a <__divmodhi4>
					{
						randPos = 5;
    19c6:	80 93 88 05 	sts	0x0588, r24	; 0x800588 <randPosIndex>
    19ca:	81 11       	cpse	r24, r1
    19cc:	05 c0       	rjmp	.+10     	; 0x19d8 <M_tick+0xb54>
    19ce:	10 92 8a 05 	sts	0x058A, r1	; 0x80058a <randPos+0x1>
					}
					else if(randPosIndex == 2)
    19d2:	10 92 89 05 	sts	0x0589, r1	; 0x800589 <randPos>
					{
						randPos = 10;
    19d6:	0d c0       	rjmp	.+26     	; 0x19f2 <M_tick+0xb6e>
    19d8:	81 30       	cpi	r24, 0x01	; 1
    19da:	29 f4       	brne	.+10     	; 0x19e6 <M_tick+0xb62>
				else if(randPosIndex == 2)
				{
					randPos = 10;
				}
				
				while(randPos == rotPos)
    19dc:	f0 92 8a 05 	sts	0x058A, r15	; 0x80058a <randPos+0x1>
    19e0:	e0 92 89 05 	sts	0x0589, r14	; 0x800589 <randPos>
    19e4:	06 c0       	rjmp	.+12     	; 0x19f2 <M_tick+0xb6e>
    19e6:	82 30       	cpi	r24, 0x02	; 2
    19e8:	21 f4       	brne	.+8      	; 0x19f2 <M_tick+0xb6e>
    19ea:	d0 92 8a 05 	sts	0x058A, r13	; 0x80058a <randPos+0x1>
    19ee:	c0 92 89 05 	sts	0x0589, r12	; 0x800589 <randPos>
					{
						randPos = 10;
					}
				}
				
				if(randPosIndex == 0)
    19f2:	80 91 89 05 	lds	r24, 0x0589	; 0x800589 <randPos>
    19f6:	90 91 8a 05 	lds	r25, 0x058A	; 0x80058a <randPos+0x1>
				{
					char longword[50] = "Shield generator to 1.";
    19fa:	20 91 91 05 	lds	r18, 0x0591	; 0x800591 <rotPos>
    19fe:	30 91 92 05 	lds	r19, 0x0592	; 0x800592 <rotPos+0x1>
    1a02:	82 17       	cp	r24, r18
    1a04:	93 07       	cpc	r25, r19
    1a06:	e1 f2       	breq	.-72     	; 0x19c0 <M_tick+0xb3c>
    1a08:	20 91 88 05 	lds	r18, 0x0588	; 0x800588 <randPosIndex>
    1a0c:	21 11       	cpse	r18, r1
    1a0e:	19 c0       	rjmp	.+50     	; 0x1a42 <M_tick+0xbbe>
    1a10:	87 e1       	ldi	r24, 0x17	; 23
    1a12:	e9 ec       	ldi	r30, 0xC9	; 201
    1a14:	f3 e0       	ldi	r31, 0x03	; 3
    1a16:	de 01       	movw	r26, r28
    1a18:	11 96       	adiw	r26, 0x01	; 1
					LCD_DisplayString(1,longword);
    1a1a:	01 90       	ld	r0, Z+
    1a1c:	0d 92       	st	X+, r0
    1a1e:	8a 95       	dec	r24
    1a20:	e1 f7       	brne	.-8      	; 0x1a1a <M_tick+0xb96>
    1a22:	fe 01       	movw	r30, r28
    1a24:	78 96       	adiw	r30, 0x18	; 24
    1a26:	8b e1       	ldi	r24, 0x1B	; 27
    1a28:	df 01       	movw	r26, r30
    1a2a:	1d 92       	st	X+, r1
				}
				else if(randPos == 5)
    1a2c:	8a 95       	dec	r24
    1a2e:	e9 f7       	brne	.-6      	; 0x1a2a <M_tick+0xba6>
    1a30:	be 01       	movw	r22, r28
				{
					char longword[50] = "Shield generator to 2.";
    1a32:	6f 5f       	subi	r22, 0xFF	; 255
    1a34:	7f 4f       	sbci	r23, 0xFF	; 255
    1a36:	81 e0       	ldi	r24, 0x01	; 1
    1a38:	0e 94 ce 01 	call	0x39c	; 0x39c <LCD_DisplayString>
    1a3c:	01 e0       	ldi	r16, 0x01	; 1
    1a3e:	10 e0       	ldi	r17, 0x00	; 0
    1a40:	ae c1       	rjmp	.+860    	; 0x1d9e <M_tick+0xf1a>
    1a42:	85 30       	cpi	r24, 0x05	; 5
    1a44:	91 05       	cpc	r25, r1
    1a46:	c9 f4       	brne	.+50     	; 0x1a7a <M_tick+0xbf6>
    1a48:	87 e1       	ldi	r24, 0x17	; 23
    1a4a:	eb ef       	ldi	r30, 0xFB	; 251
    1a4c:	f3 e0       	ldi	r31, 0x03	; 3
    1a4e:	de 01       	movw	r26, r28
    1a50:	11 96       	adiw	r26, 0x01	; 1
					LCD_DisplayString(1,longword);
    1a52:	01 90       	ld	r0, Z+
    1a54:	0d 92       	st	X+, r0
    1a56:	8a 95       	dec	r24
    1a58:	e1 f7       	brne	.-8      	; 0x1a52 <M_tick+0xbce>
    1a5a:	fe 01       	movw	r30, r28
    1a5c:	78 96       	adiw	r30, 0x18	; 24
    1a5e:	8b e1       	ldi	r24, 0x1B	; 27
    1a60:	df 01       	movw	r26, r30
    1a62:	1d 92       	st	X+, r1
				}
				else if(randPos == 10)
    1a64:	8a 95       	dec	r24
    1a66:	e9 f7       	brne	.-6      	; 0x1a62 <M_tick+0xbde>
    1a68:	be 01       	movw	r22, r28
				{
					char longword[50] = "Shield generator to 3.";
    1a6a:	6f 5f       	subi	r22, 0xFF	; 255
    1a6c:	7f 4f       	sbci	r23, 0xFF	; 255
    1a6e:	81 e0       	ldi	r24, 0x01	; 1
    1a70:	0e 94 ce 01 	call	0x39c	; 0x39c <LCD_DisplayString>
    1a74:	01 e0       	ldi	r16, 0x01	; 1
    1a76:	10 e0       	ldi	r17, 0x00	; 0
    1a78:	92 c1       	rjmp	.+804    	; 0x1d9e <M_tick+0xf1a>
    1a7a:	0a 97       	sbiw	r24, 0x0a	; 10
    1a7c:	09 f0       	breq	.+2      	; 0x1a80 <M_tick+0xbfc>
    1a7e:	5d c1       	rjmp	.+698    	; 0x1d3a <M_tick+0xeb6>
    1a80:	87 e1       	ldi	r24, 0x17	; 23
    1a82:	ed e2       	ldi	r30, 0x2D	; 45
    1a84:	f4 e0       	ldi	r31, 0x04	; 4
    1a86:	de 01       	movw	r26, r28
    1a88:	11 96       	adiw	r26, 0x01	; 1
					LCD_DisplayString(1,longword);
    1a8a:	01 90       	ld	r0, Z+
    1a8c:	0d 92       	st	X+, r0
    1a8e:	8a 95       	dec	r24
    1a90:	e1 f7       	brne	.-8      	; 0x1a8a <M_tick+0xc06>
    1a92:	fe 01       	movw	r30, r28
    1a94:	78 96       	adiw	r30, 0x18	; 24
    1a96:	8b e1       	ldi	r24, 0x1B	; 27
    1a98:	df 01       	movw	r26, r30
    1a9a:	1d 92       	st	X+, r1
			}
		}
		else
		{
			
			if(instruction == 0)
    1a9c:	8a 95       	dec	r24
    1a9e:	e9 f7       	brne	.-6      	; 0x1a9a <M_tick+0xc16>
    1aa0:	be 01       	movw	r22, r28
    1aa2:	6f 5f       	subi	r22, 0xFF	; 255
			{
				char longword[50] = "Enter code:";
    1aa4:	7f 4f       	sbci	r23, 0xFF	; 255
    1aa6:	81 e0       	ldi	r24, 0x01	; 1
    1aa8:	0e 94 ce 01 	call	0x39c	; 0x39c <LCD_DisplayString>
    1aac:	01 e0       	ldi	r16, 0x01	; 1
    1aae:	10 e0       	ldi	r17, 0x00	; 0
    1ab0:	76 c1       	rjmp	.+748    	; 0x1d9e <M_tick+0xf1a>
    1ab2:	80 91 c4 05 	lds	r24, 0x05C4	; 0x8005c4 <instruction>
    1ab6:	81 11       	cpse	r24, r1
    1ab8:	34 c0       	rjmp	.+104    	; 0x1b22 <M_tick+0xc9e>
    1aba:	8c e0       	ldi	r24, 0x0C	; 12
    1abc:	e1 e7       	ldi	r30, 0x71	; 113
    1abe:	f1 e0       	ldi	r31, 0x01	; 1
    1ac0:	de 01       	movw	r26, r28
    1ac2:	11 96       	adiw	r26, 0x01	; 1
				LCD_DisplayString(1,longword);
    1ac4:	01 90       	ld	r0, Z+
    1ac6:	0d 92       	st	X+, r0
    1ac8:	8a 95       	dec	r24
    1aca:	e1 f7       	brne	.-8      	; 0x1ac4 <M_tick+0xc40>
    1acc:	fe 01       	movw	r30, r28
    1ace:	3d 96       	adiw	r30, 0x0d	; 13
				
				LCD_Cursor(12);
    1ad0:	86 e2       	ldi	r24, 0x26	; 38
    1ad2:	df 01       	movw	r26, r30
    1ad4:	1d 92       	st	X+, r1
				LCD_WriteData(randkeyPadCode[0] + '0');
    1ad6:	8a 95       	dec	r24
    1ad8:	e9 f7       	brne	.-6      	; 0x1ad4 <M_tick+0xc50>
    1ada:	be 01       	movw	r22, r28
    1adc:	6f 5f       	subi	r22, 0xFF	; 255
    1ade:	7f 4f       	sbci	r23, 0xFF	; 255
    1ae0:	81 e0       	ldi	r24, 0x01	; 1
    1ae2:	0e 94 ce 01 	call	0x39c	; 0x39c <LCD_DisplayString>
				LCD_WriteData(randkeyPadCode[1] + '0');
    1ae6:	8c e0       	ldi	r24, 0x0C	; 12
    1ae8:	0e 94 ae 01 	call	0x35c	; 0x35c <LCD_Cursor>
    1aec:	03 e2       	ldi	r16, 0x23	; 35
    1aee:	11 e0       	ldi	r17, 0x01	; 1
				LCD_WriteData(randkeyPadCode[2] + '0');
    1af0:	f8 01       	movw	r30, r16
    1af2:	80 81       	ld	r24, Z
    1af4:	80 5d       	subi	r24, 0xD0	; 208
    1af6:	0e 94 c5 01 	call	0x38a	; 0x38a <LCD_WriteData>
				LCD_WriteData(randkeyPadCode[3] + '0');
    1afa:	d8 01       	movw	r26, r16
    1afc:	11 96       	adiw	r26, 0x01	; 1
    1afe:	8c 91       	ld	r24, X
    1b00:	80 5d       	subi	r24, 0xD0	; 208
    1b02:	0e 94 c5 01 	call	0x38a	; 0x38a <LCD_WriteData>
    1b06:	f8 01       	movw	r30, r16
    1b08:	82 81       	ldd	r24, Z+2	; 0x02
    1b0a:	80 5d       	subi	r24, 0xD0	; 208
			}
			else if(instruction == 1)
    1b0c:	0e 94 c5 01 	call	0x38a	; 0x38a <LCD_WriteData>
			{
				if(weightToggle == 0)
    1b10:	d8 01       	movw	r26, r16
    1b12:	13 96       	adiw	r26, 0x03	; 3
    1b14:	8c 91       	ld	r24, X
    1b16:	80 5d       	subi	r24, 0xD0	; 208
				{
					char longword[50] = "Press acceleration hard";
    1b18:	0e 94 c5 01 	call	0x38a	; 0x38a <LCD_WriteData>
    1b1c:	01 e0       	ldi	r16, 0x01	; 1
    1b1e:	10 e0       	ldi	r17, 0x00	; 0
    1b20:	3e c1       	rjmp	.+636    	; 0x1d9e <M_tick+0xf1a>
    1b22:	81 30       	cpi	r24, 0x01	; 1
    1b24:	b1 f5       	brne	.+108    	; 0x1b92 <M_tick+0xd0e>
    1b26:	80 91 b0 05 	lds	r24, 0x05B0	; 0x8005b0 <weightToggle>
    1b2a:	81 11       	cpse	r24, r1
    1b2c:	19 c0       	rjmp	.+50     	; 0x1b60 <M_tick+0xcdc>
    1b2e:	88 e1       	ldi	r24, 0x18	; 24
    1b30:	ef e5       	ldi	r30, 0x5F	; 95
    1b32:	f4 e0       	ldi	r31, 0x04	; 4
    1b34:	de 01       	movw	r26, r28
    1b36:	11 96       	adiw	r26, 0x01	; 1
					LCD_DisplayString(1,longword);
    1b38:	01 90       	ld	r0, Z+
    1b3a:	0d 92       	st	X+, r0
    1b3c:	8a 95       	dec	r24
    1b3e:	e1 f7       	brne	.-8      	; 0x1b38 <M_tick+0xcb4>
    1b40:	fe 01       	movw	r30, r28
    1b42:	79 96       	adiw	r30, 0x19	; 25
    1b44:	8a e1       	ldi	r24, 0x1A	; 26
    1b46:	df 01       	movw	r26, r30
    1b48:	1d 92       	st	X+, r1
				}
				else
				{
					char longword[50] = "Press acceleration moderately";
    1b4a:	8a 95       	dec	r24
    1b4c:	e9 f7       	brne	.-6      	; 0x1b48 <M_tick+0xcc4>
    1b4e:	be 01       	movw	r22, r28
    1b50:	6f 5f       	subi	r22, 0xFF	; 255
    1b52:	7f 4f       	sbci	r23, 0xFF	; 255
    1b54:	81 e0       	ldi	r24, 0x01	; 1
    1b56:	0e 94 ce 01 	call	0x39c	; 0x39c <LCD_DisplayString>
    1b5a:	01 e0       	ldi	r16, 0x01	; 1
    1b5c:	10 e0       	ldi	r17, 0x00	; 0
    1b5e:	1f c1       	rjmp	.+574    	; 0x1d9e <M_tick+0xf1a>
    1b60:	8e e1       	ldi	r24, 0x1E	; 30
    1b62:	e1 e9       	ldi	r30, 0x91	; 145
    1b64:	f4 e0       	ldi	r31, 0x04	; 4
    1b66:	de 01       	movw	r26, r28
    1b68:	11 96       	adiw	r26, 0x01	; 1
					LCD_DisplayString(1,longword);
    1b6a:	01 90       	ld	r0, Z+
    1b6c:	0d 92       	st	X+, r0
    1b6e:	8a 95       	dec	r24
    1b70:	e1 f7       	brne	.-8      	; 0x1b6a <M_tick+0xce6>
    1b72:	fe 01       	movw	r30, r28
    1b74:	7f 96       	adiw	r30, 0x1f	; 31
    1b76:	84 e1       	ldi	r24, 0x14	; 20
    1b78:	df 01       	movw	r26, r30
    1b7a:	1d 92       	st	X+, r1
				}
			}
			else if(instruction == 2)
    1b7c:	8a 95       	dec	r24
    1b7e:	e9 f7       	brne	.-6      	; 0x1b7a <M_tick+0xcf6>
    1b80:	be 01       	movw	r22, r28
			{
				if(directionToggle == 0)
    1b82:	6f 5f       	subi	r22, 0xFF	; 255
    1b84:	7f 4f       	sbci	r23, 0xFF	; 255
    1b86:	81 e0       	ldi	r24, 0x01	; 1
    1b88:	0e 94 ce 01 	call	0x39c	; 0x39c <LCD_DisplayString>
				{
					char longword[50] = "Steer Right.";
    1b8c:	01 e0       	ldi	r16, 0x01	; 1
    1b8e:	10 e0       	ldi	r17, 0x00	; 0
    1b90:	06 c1       	rjmp	.+524    	; 0x1d9e <M_tick+0xf1a>
    1b92:	82 30       	cpi	r24, 0x02	; 2
    1b94:	09 f0       	breq	.+2      	; 0x1b98 <M_tick+0xd14>
    1b96:	6f c0       	rjmp	.+222    	; 0x1c76 <M_tick+0xdf2>
    1b98:	80 91 9b 05 	lds	r24, 0x059B	; 0x80059b <directionToggle>
    1b9c:	81 11       	cpse	r24, r1
    1b9e:	19 c0       	rjmp	.+50     	; 0x1bd2 <M_tick+0xd4e>
    1ba0:	8d e0       	ldi	r24, 0x0D	; 13
    1ba2:	e7 e0       	ldi	r30, 0x07	; 7
    1ba4:	f2 e0       	ldi	r31, 0x02	; 2
    1ba6:	de 01       	movw	r26, r28
    1ba8:	11 96       	adiw	r26, 0x01	; 1
					LCD_DisplayString(1,longword);
    1baa:	01 90       	ld	r0, Z+
    1bac:	0d 92       	st	X+, r0
    1bae:	8a 95       	dec	r24
    1bb0:	e1 f7       	brne	.-8      	; 0x1baa <M_tick+0xd26>
    1bb2:	fe 01       	movw	r30, r28
    1bb4:	3e 96       	adiw	r30, 0x0e	; 14
    1bb6:	85 e2       	ldi	r24, 0x25	; 37
    1bb8:	df 01       	movw	r26, r30
    1bba:	1d 92       	st	X+, r1
				}
				else if(directionToggle == 1)
    1bbc:	8a 95       	dec	r24
    1bbe:	e9 f7       	brne	.-6      	; 0x1bba <M_tick+0xd36>
				{
					char longword[50] = "Steer Left.";
    1bc0:	be 01       	movw	r22, r28
    1bc2:	6f 5f       	subi	r22, 0xFF	; 255
    1bc4:	7f 4f       	sbci	r23, 0xFF	; 255
    1bc6:	81 e0       	ldi	r24, 0x01	; 1
    1bc8:	0e 94 ce 01 	call	0x39c	; 0x39c <LCD_DisplayString>
    1bcc:	01 e0       	ldi	r16, 0x01	; 1
    1bce:	10 e0       	ldi	r17, 0x00	; 0
    1bd0:	e6 c0       	rjmp	.+460    	; 0x1d9e <M_tick+0xf1a>
    1bd2:	81 30       	cpi	r24, 0x01	; 1
    1bd4:	c9 f4       	brne	.+50     	; 0x1c08 <M_tick+0xd84>
    1bd6:	8c e0       	ldi	r24, 0x0C	; 12
    1bd8:	e9 e3       	ldi	r30, 0x39	; 57
    1bda:	f2 e0       	ldi	r31, 0x02	; 2
    1bdc:	de 01       	movw	r26, r28
    1bde:	11 96       	adiw	r26, 0x01	; 1
					LCD_DisplayString(1,longword);
    1be0:	01 90       	ld	r0, Z+
    1be2:	0d 92       	st	X+, r0
    1be4:	8a 95       	dec	r24
    1be6:	e1 f7       	brne	.-8      	; 0x1be0 <M_tick+0xd5c>
    1be8:	fe 01       	movw	r30, r28
    1bea:	3d 96       	adiw	r30, 0x0d	; 13
    1bec:	86 e2       	ldi	r24, 0x26	; 38
    1bee:	df 01       	movw	r26, r30
    1bf0:	1d 92       	st	X+, r1
				}
				else if(directionToggle == 2)
    1bf2:	8a 95       	dec	r24
    1bf4:	e9 f7       	brne	.-6      	; 0x1bf0 <M_tick+0xd6c>
				{
					char longword[50] = "Steer Up.";
    1bf6:	be 01       	movw	r22, r28
    1bf8:	6f 5f       	subi	r22, 0xFF	; 255
    1bfa:	7f 4f       	sbci	r23, 0xFF	; 255
    1bfc:	81 e0       	ldi	r24, 0x01	; 1
    1bfe:	0e 94 ce 01 	call	0x39c	; 0x39c <LCD_DisplayString>
    1c02:	01 e0       	ldi	r16, 0x01	; 1
    1c04:	10 e0       	ldi	r17, 0x00	; 0
    1c06:	cb c0       	rjmp	.+406    	; 0x1d9e <M_tick+0xf1a>
    1c08:	82 30       	cpi	r24, 0x02	; 2
    1c0a:	c9 f4       	brne	.+50     	; 0x1c3e <M_tick+0xdba>
    1c0c:	8a e0       	ldi	r24, 0x0A	; 10
    1c0e:	eb e6       	ldi	r30, 0x6B	; 107
    1c10:	f2 e0       	ldi	r31, 0x02	; 2
    1c12:	de 01       	movw	r26, r28
    1c14:	11 96       	adiw	r26, 0x01	; 1
					LCD_DisplayString(1,longword);
    1c16:	01 90       	ld	r0, Z+
    1c18:	0d 92       	st	X+, r0
    1c1a:	8a 95       	dec	r24
    1c1c:	e1 f7       	brne	.-8      	; 0x1c16 <M_tick+0xd92>
    1c1e:	fe 01       	movw	r30, r28
    1c20:	3b 96       	adiw	r30, 0x0b	; 11
    1c22:	88 e2       	ldi	r24, 0x28	; 40
    1c24:	df 01       	movw	r26, r30
    1c26:	1d 92       	st	X+, r1
				}
				else if(directionToggle == 3)
    1c28:	8a 95       	dec	r24
    1c2a:	e9 f7       	brne	.-6      	; 0x1c26 <M_tick+0xda2>
    1c2c:	be 01       	movw	r22, r28
				{
					char longword[50] = "Steer Down.";
    1c2e:	6f 5f       	subi	r22, 0xFF	; 255
    1c30:	7f 4f       	sbci	r23, 0xFF	; 255
    1c32:	81 e0       	ldi	r24, 0x01	; 1
    1c34:	0e 94 ce 01 	call	0x39c	; 0x39c <LCD_DisplayString>
    1c38:	01 e0       	ldi	r16, 0x01	; 1
    1c3a:	10 e0       	ldi	r17, 0x00	; 0
    1c3c:	b0 c0       	rjmp	.+352    	; 0x1d9e <M_tick+0xf1a>
    1c3e:	83 30       	cpi	r24, 0x03	; 3
    1c40:	09 f0       	breq	.+2      	; 0x1c44 <M_tick+0xdc0>
    1c42:	7e c0       	rjmp	.+252    	; 0x1d40 <M_tick+0xebc>
    1c44:	8c e0       	ldi	r24, 0x0C	; 12
    1c46:	ed e9       	ldi	r30, 0x9D	; 157
    1c48:	f2 e0       	ldi	r31, 0x02	; 2
    1c4a:	de 01       	movw	r26, r28
    1c4c:	11 96       	adiw	r26, 0x01	; 1
					LCD_DisplayString(1,longword);
    1c4e:	01 90       	ld	r0, Z+
    1c50:	0d 92       	st	X+, r0
    1c52:	8a 95       	dec	r24
    1c54:	e1 f7       	brne	.-8      	; 0x1c4e <M_tick+0xdca>
    1c56:	fe 01       	movw	r30, r28
    1c58:	3d 96       	adiw	r30, 0x0d	; 13
    1c5a:	86 e2       	ldi	r24, 0x26	; 38
    1c5c:	df 01       	movw	r26, r30
    1c5e:	1d 92       	st	X+, r1
				}
			}
			else if(instruction == 3)
    1c60:	8a 95       	dec	r24
    1c62:	e9 f7       	brne	.-6      	; 0x1c5e <M_tick+0xdda>
    1c64:	be 01       	movw	r22, r28
			{
				if(randPos == 0)
    1c66:	6f 5f       	subi	r22, 0xFF	; 255
    1c68:	7f 4f       	sbci	r23, 0xFF	; 255
    1c6a:	81 e0       	ldi	r24, 0x01	; 1
    1c6c:	0e 94 ce 01 	call	0x39c	; 0x39c <LCD_DisplayString>
    1c70:	01 e0       	ldi	r16, 0x01	; 1
				{
					char longword[50] = "Shield generator to 1.";
    1c72:	10 e0       	ldi	r17, 0x00	; 0
    1c74:	94 c0       	rjmp	.+296    	; 0x1d9e <M_tick+0xf1a>
    1c76:	83 30       	cpi	r24, 0x03	; 3
    1c78:	09 f0       	breq	.+2      	; 0x1c7c <M_tick+0xdf8>
    1c7a:	65 c0       	rjmp	.+202    	; 0x1d46 <M_tick+0xec2>
    1c7c:	80 91 89 05 	lds	r24, 0x0589	; 0x800589 <randPos>
    1c80:	90 91 8a 05 	lds	r25, 0x058A	; 0x80058a <randPos+0x1>
    1c84:	00 97       	sbiw	r24, 0x00	; 0
    1c86:	c9 f4       	brne	.+50     	; 0x1cba <M_tick+0xe36>
    1c88:	87 e1       	ldi	r24, 0x17	; 23
    1c8a:	e9 ec       	ldi	r30, 0xC9	; 201
    1c8c:	f3 e0       	ldi	r31, 0x03	; 3
    1c8e:	de 01       	movw	r26, r28
    1c90:	11 96       	adiw	r26, 0x01	; 1
					LCD_DisplayString(1,longword);
    1c92:	01 90       	ld	r0, Z+
    1c94:	0d 92       	st	X+, r0
    1c96:	8a 95       	dec	r24
    1c98:	e1 f7       	brne	.-8      	; 0x1c92 <M_tick+0xe0e>
    1c9a:	fe 01       	movw	r30, r28
    1c9c:	78 96       	adiw	r30, 0x18	; 24
    1c9e:	8b e1       	ldi	r24, 0x1B	; 27
    1ca0:	df 01       	movw	r26, r30
    1ca2:	1d 92       	st	X+, r1
				}
				else if(randPos == 5)
    1ca4:	8a 95       	dec	r24
    1ca6:	e9 f7       	brne	.-6      	; 0x1ca2 <M_tick+0xe1e>
    1ca8:	be 01       	movw	r22, r28
				{
					char longword[50] = "Shield generator to 2.";
    1caa:	6f 5f       	subi	r22, 0xFF	; 255
    1cac:	7f 4f       	sbci	r23, 0xFF	; 255
    1cae:	81 e0       	ldi	r24, 0x01	; 1
    1cb0:	0e 94 ce 01 	call	0x39c	; 0x39c <LCD_DisplayString>
    1cb4:	01 e0       	ldi	r16, 0x01	; 1
    1cb6:	10 e0       	ldi	r17, 0x00	; 0
    1cb8:	72 c0       	rjmp	.+228    	; 0x1d9e <M_tick+0xf1a>
    1cba:	85 30       	cpi	r24, 0x05	; 5
    1cbc:	91 05       	cpc	r25, r1
    1cbe:	c9 f4       	brne	.+50     	; 0x1cf2 <M_tick+0xe6e>
    1cc0:	87 e1       	ldi	r24, 0x17	; 23
    1cc2:	eb ef       	ldi	r30, 0xFB	; 251
    1cc4:	f3 e0       	ldi	r31, 0x03	; 3
    1cc6:	de 01       	movw	r26, r28
    1cc8:	11 96       	adiw	r26, 0x01	; 1
					LCD_DisplayString(1,longword);
    1cca:	01 90       	ld	r0, Z+
    1ccc:	0d 92       	st	X+, r0
    1cce:	8a 95       	dec	r24
    1cd0:	e1 f7       	brne	.-8      	; 0x1cca <M_tick+0xe46>
    1cd2:	fe 01       	movw	r30, r28
    1cd4:	78 96       	adiw	r30, 0x18	; 24
    1cd6:	8b e1       	ldi	r24, 0x1B	; 27
    1cd8:	df 01       	movw	r26, r30
    1cda:	1d 92       	st	X+, r1
				}
				else if(randPos == 10)
    1cdc:	8a 95       	dec	r24
    1cde:	e9 f7       	brne	.-6      	; 0x1cda <M_tick+0xe56>
				{
					char longword[50] = "Shield generator to 3.";
    1ce0:	be 01       	movw	r22, r28
    1ce2:	6f 5f       	subi	r22, 0xFF	; 255
    1ce4:	7f 4f       	sbci	r23, 0xFF	; 255
    1ce6:	81 e0       	ldi	r24, 0x01	; 1
    1ce8:	0e 94 ce 01 	call	0x39c	; 0x39c <LCD_DisplayString>
    1cec:	01 e0       	ldi	r16, 0x01	; 1
    1cee:	10 e0       	ldi	r17, 0x00	; 0
    1cf0:	56 c0       	rjmp	.+172    	; 0x1d9e <M_tick+0xf1a>
    1cf2:	0a 97       	sbiw	r24, 0x0a	; 10
    1cf4:	59 f5       	brne	.+86     	; 0x1d4c <M_tick+0xec8>
    1cf6:	87 e1       	ldi	r24, 0x17	; 23
    1cf8:	ed e2       	ldi	r30, 0x2D	; 45
    1cfa:	f4 e0       	ldi	r31, 0x04	; 4
    1cfc:	de 01       	movw	r26, r28
    1cfe:	11 96       	adiw	r26, 0x01	; 1
					LCD_DisplayString(1,longword);
    1d00:	01 90       	ld	r0, Z+
    1d02:	0d 92       	st	X+, r0
    1d04:	8a 95       	dec	r24
    1d06:	e1 f7       	brne	.-8      	; 0x1d00 <M_tick+0xe7c>
    1d08:	fe 01       	movw	r30, r28
    1d0a:	78 96       	adiw	r30, 0x18	; 24
    1d0c:	8b e1       	ldi	r24, 0x1B	; 27
    1d0e:	df 01       	movw	r26, r30
    1d10:	1d 92       	st	X+, r1
			}
			state = M_gameOver;
		break;
		
		default:
		state = M_Begin;
    1d12:	8a 95       	dec	r24
    1d14:	e9 f7       	brne	.-6      	; 0x1d10 <M_tick+0xe8c>
    1d16:	be 01       	movw	r22, r28
    1d18:	6f 5f       	subi	r22, 0xFF	; 255
    1d1a:	7f 4f       	sbci	r23, 0xFF	; 255
    1d1c:	81 e0       	ldi	r24, 0x01	; 1
    1d1e:	0e 94 ce 01 	call	0x39c	; 0x39c <LCD_DisplayString>
    1d22:	01 e0       	ldi	r16, 0x01	; 1
    1d24:	10 e0       	ldi	r17, 0x00	; 0
    1d26:	3b c0       	rjmp	.+118    	; 0x1d9e <M_tick+0xf1a>
    1d28:	00 e0       	ldi	r16, 0x00	; 0
    1d2a:	10 e0       	ldi	r17, 0x00	; 0
    1d2c:	38 c0       	rjmp	.+112    	; 0x1d9e <M_tick+0xf1a>
    1d2e:	01 e0       	ldi	r16, 0x01	; 1
    1d30:	10 e0       	ldi	r17, 0x00	; 0
    1d32:	35 c0       	rjmp	.+106    	; 0x1d9e <M_tick+0xf1a>
    1d34:	01 e0       	ldi	r16, 0x01	; 1
    1d36:	10 e0       	ldi	r17, 0x00	; 0
    1d38:	32 c0       	rjmp	.+100    	; 0x1d9e <M_tick+0xf1a>
    1d3a:	01 e0       	ldi	r16, 0x01	; 1
	{
		case M_Begin:
		break;
		
		case M_Sta:
		if(instruction == 0) // THIS IS FOR THE KEYPAD INSTRUCTION
    1d3c:	10 e0       	ldi	r17, 0x00	; 0
    1d3e:	2f c0       	rjmp	.+94     	; 0x1d9e <M_tick+0xf1a>
    1d40:	01 e0       	ldi	r16, 0x01	; 1
    1d42:	10 e0       	ldi	r17, 0x00	; 0
    1d44:	2c c0       	rjmp	.+88     	; 0x1d9e <M_tick+0xf1a>
    1d46:	01 e0       	ldi	r16, 0x01	; 1
				rTick = 0;
			}
		}
		
		
		if(iCompleted == 1) // if instruction was completed
    1d48:	10 e0       	ldi	r17, 0x00	; 0
    1d4a:	29 c0       	rjmp	.+82     	; 0x1d9e <M_tick+0xf1a>
    1d4c:	01 e0       	ldi	r16, 0x01	; 1
    1d4e:	10 e0       	ldi	r17, 0x00	; 0
    1d50:	26 c0       	rjmp	.+76     	; 0x1d9e <M_tick+0xf1a>
    1d52:	80 91 c4 05 	lds	r24, 0x05C4	; 0x8005c4 <instruction>
    1d56:	88 23       	and	r24, r24
    1d58:	09 f4       	brne	.+2      	; 0x1d5c <M_tick+0xed8>
    1d5a:	ce cb       	rjmp	.-2148   	; 0x14f8 <M_tick+0x674>
    1d5c:	64 cc       	rjmp	.-1848   	; 0x1626 <M_tick+0x7a2>
    1d5e:	80 91 cd 05 	lds	r24, 0x05CD	; 0x8005cd <iCompleted>
    1d62:	81 30       	cpi	r24, 0x01	; 1
    1d64:	09 f4       	brne	.+2      	; 0x1d68 <M_tick+0xee4>
    1d66:	dd cc       	rjmp	.-1606   	; 0x1722 <M_tick+0x89e>
    1d68:	a8 ce       	rjmp	.-688    	; 0x1aba <M_tick+0xc36>
    1d6a:	80 91 cd 05 	lds	r24, 0x05CD	; 0x8005cd <iCompleted>
		break;
		
		default:
		break;
	}
	return state;
    1d6e:	81 30       	cpi	r24, 0x01	; 1
				rTick = 0;
			}
		}
		
		
		if(iCompleted == 1) // if instruction was completed
    1d70:	09 f0       	breq	.+2      	; 0x1d74 <M_tick+0xef0>
    1d72:	12 cf       	rjmp	.-476    	; 0x1b98 <M_tick+0xd14>
    1d74:	d6 cc       	rjmp	.-1620   	; 0x1722 <M_tick+0x89e>
    1d76:	80 91 cd 05 	lds	r24, 0x05CD	; 0x8005cd <iCompleted>
    1d7a:	81 30       	cpi	r24, 0x01	; 1
    1d7c:	09 f4       	brne	.+2      	; 0x1d80 <M_tick+0xefc>
    1d7e:	d1 cc       	rjmp	.-1630   	; 0x1722 <M_tick+0x89e>
    1d80:	01 e0       	ldi	r16, 0x01	; 1
    1d82:	10 e0       	ldi	r17, 0x00	; 0
    1d84:	0c c0       	rjmp	.+24     	; 0x1d9e <M_tick+0xf1a>
    1d86:	80 91 cd 05 	lds	r24, 0x05CD	; 0x8005cd <iCompleted>
		
		default:
		break;
	}
	return state;
}
    1d8a:	81 30       	cpi	r24, 0x01	; 1
    1d8c:	09 f0       	breq	.+2      	; 0x1d90 <M_tick+0xf0c>
    1d8e:	cf ce       	rjmp	.-610    	; 0x1b2e <M_tick+0xcaa>
    1d90:	c8 cc       	rjmp	.-1648   	; 0x1722 <M_tick+0x89e>
    1d92:	80 91 cd 05 	lds	r24, 0x05CD	; 0x8005cd <iCompleted>
    1d96:	81 30       	cpi	r24, 0x01	; 1
    1d98:	09 f0       	breq	.+2      	; 0x1d9c <M_tick+0xf18>
    1d9a:	e2 ce       	rjmp	.-572    	; 0x1b60 <M_tick+0xcdc>
    1d9c:	c2 cc       	rjmp	.-1660   	; 0x1722 <M_tick+0x89e>
    1d9e:	c8 01       	movw	r24, r16
    1da0:	e2 96       	adiw	r28, 0x32	; 50
    1da2:	0f b6       	in	r0, 0x3f	; 63
    1da4:	f8 94       	cli
    1da6:	de bf       	out	0x3e, r29	; 62
    1da8:	0f be       	out	0x3f, r0	; 63
    1daa:	cd bf       	out	0x3d, r28	; 61
    1dac:	df 91       	pop	r29
    1dae:	cf 91       	pop	r28
    1db0:	1f 91       	pop	r17
    1db2:	0f 91       	pop	r16
    1db4:	ff 90       	pop	r15
    1db6:	ef 90       	pop	r14
    1db8:	df 90       	pop	r13
    1dba:	cf 90       	pop	r12
    1dbc:	08 95       	ret

00001dbe <main>:

int main(void)
{
    1dbe:	cf 93       	push	r28
    1dc0:	df 93       	push	r29
    1dc2:	cd b7       	in	r28, 0x3d	; 61
    1dc4:	de b7       	in	r29, 0x3e	; 62
    1dc6:	2e 97       	sbiw	r28, 0x0e	; 14
    1dc8:	0f b6       	in	r0, 0x3f	; 63
    1dca:	f8 94       	cli
    1dcc:	de bf       	out	0x3e, r29	; 62
    1dce:	0f be       	out	0x3f, r0	; 63
    1dd0:	cd bf       	out	0x3d, r28	; 61
	DDRA = 0x0C; PORTA = 0xF3;
    1dd2:	8c e0       	ldi	r24, 0x0C	; 12
    1dd4:	81 b9       	out	0x01, r24	; 1
    1dd6:	83 ef       	ldi	r24, 0xF3	; 243
    1dd8:	82 b9       	out	0x02, r24	; 2
	DDRC = 0xF0; PORTC = 0x0F;
    1dda:	80 ef       	ldi	r24, 0xF0	; 240
    1ddc:	87 b9       	out	0x07, r24	; 7
    1dde:	8f e0       	ldi	r24, 0x0F	; 15
    1de0:	88 b9       	out	0x08, r24	; 8
	DDRD = 0xFF; PORTD = 0x00;
    1de2:	8f ef       	ldi	r24, 0xFF	; 255
    1de4:	8a b9       	out	0x0a, r24	; 10
    1de6:	1b b8       	out	0x0b, r1	; 11
	DDRB = 0xFF; PORTB = 0x00;
    1de8:	84 b9       	out	0x04, r24	; 4
    1dea:	15 b8       	out	0x05, r1	; 5
	
	static task master,keyPad,weight,joyStick,rotary,asteroidG,hyperDrive;
	task *tasks[] = {&master,&keyPad,&weight,&joyStick,&rotary,&asteroidG,&hyperDrive};
    1dec:	8e e0       	ldi	r24, 0x0E	; 14
    1dee:	e3 ec       	ldi	r30, 0xC3	; 195
    1df0:	f4 e0       	ldi	r31, 0x04	; 4
    1df2:	de 01       	movw	r26, r28
    1df4:	11 96       	adiw	r26, 0x01	; 1
    1df6:	01 90       	ld	r0, Z+
    1df8:	0d 92       	st	X+, r0
    1dfa:	8a 95       	dec	r24
    1dfc:	e1 f7       	brne	.-8      	; 0x1df6 <main+0x38>
	const unsigned short numTasks = sizeof(tasks)/sizeof(task*);
	
	master.state = M_Begin;
    1dfe:	e0 e7       	ldi	r30, 0x70	; 112
    1e00:	f5 e0       	ldi	r31, 0x05	; 5
    1e02:	10 82       	st	Z, r1
	master.period = 100;
    1e04:	44 e6       	ldi	r20, 0x64	; 100
    1e06:	50 e0       	ldi	r21, 0x00	; 0
    1e08:	60 e0       	ldi	r22, 0x00	; 0
    1e0a:	70 e0       	ldi	r23, 0x00	; 0
    1e0c:	41 83       	std	Z+1, r20	; 0x01
    1e0e:	52 83       	std	Z+2, r21	; 0x02
    1e10:	63 83       	std	Z+3, r22	; 0x03
    1e12:	74 83       	std	Z+4, r23	; 0x04
	master.elapsedTime = 100;
    1e14:	45 83       	std	Z+5, r20	; 0x05
    1e16:	56 83       	std	Z+6, r21	; 0x06
    1e18:	67 83       	std	Z+7, r22	; 0x07
    1e1a:	70 87       	std	Z+8, r23	; 0x08
	master.TaskFct = &M_tick;
    1e1c:	82 e4       	ldi	r24, 0x42	; 66
    1e1e:	97 e0       	ldi	r25, 0x07	; 7
    1e20:	92 87       	std	Z+10, r25	; 0x0a
    1e22:	81 87       	std	Z+9, r24	; 0x09
	
	keyPad.state = K_Begin;
    1e24:	e5 e6       	ldi	r30, 0x65	; 101
    1e26:	f5 e0       	ldi	r31, 0x05	; 5
    1e28:	10 82       	st	Z, r1
	keyPad.period = 1;
    1e2a:	81 e0       	ldi	r24, 0x01	; 1
    1e2c:	90 e0       	ldi	r25, 0x00	; 0
    1e2e:	a0 e0       	ldi	r26, 0x00	; 0
    1e30:	b0 e0       	ldi	r27, 0x00	; 0
    1e32:	81 83       	std	Z+1, r24	; 0x01
    1e34:	92 83       	std	Z+2, r25	; 0x02
    1e36:	a3 83       	std	Z+3, r26	; 0x03
    1e38:	b4 83       	std	Z+4, r27	; 0x04
	keyPad.elapsedTime = 1;
    1e3a:	85 83       	std	Z+5, r24	; 0x05
    1e3c:	96 83       	std	Z+6, r25	; 0x06
    1e3e:	a7 83       	std	Z+7, r26	; 0x07
    1e40:	b0 87       	std	Z+8, r27	; 0x08
	keyPad.TaskFct = &K_tick;
    1e42:	25 e3       	ldi	r18, 0x35	; 53
    1e44:	32 e0       	ldi	r19, 0x02	; 2
    1e46:	32 87       	std	Z+10, r19	; 0x0a
    1e48:	21 87       	std	Z+9, r18	; 0x09
	
	weight.state = W_Begin;
    1e4a:	ea e5       	ldi	r30, 0x5A	; 90
    1e4c:	f5 e0       	ldi	r31, 0x05	; 5
    1e4e:	10 82       	st	Z, r1
	weight.period = 100;
    1e50:	41 83       	std	Z+1, r20	; 0x01
    1e52:	52 83       	std	Z+2, r21	; 0x02
    1e54:	63 83       	std	Z+3, r22	; 0x03
    1e56:	74 83       	std	Z+4, r23	; 0x04
	weight.elapsedTime = 100;
    1e58:	45 83       	std	Z+5, r20	; 0x05
    1e5a:	56 83       	std	Z+6, r21	; 0x06
    1e5c:	67 83       	std	Z+7, r22	; 0x07
    1e5e:	70 87       	std	Z+8, r23	; 0x08
	weight.TaskFct = &W_tick;
    1e60:	2a e0       	ldi	r18, 0x0A	; 10
    1e62:	31 e0       	ldi	r19, 0x01	; 1
    1e64:	32 87       	std	Z+10, r19	; 0x0a
    1e66:	21 87       	std	Z+9, r18	; 0x09
	
	joyStick.state = J_Begin;
    1e68:	ef e4       	ldi	r30, 0x4F	; 79
    1e6a:	f5 e0       	ldi	r31, 0x05	; 5
    1e6c:	10 82       	st	Z, r1
	joyStick.period = 100;
    1e6e:	41 83       	std	Z+1, r20	; 0x01
    1e70:	52 83       	std	Z+2, r21	; 0x02
    1e72:	63 83       	std	Z+3, r22	; 0x03
    1e74:	74 83       	std	Z+4, r23	; 0x04
	joyStick.elapsedTime = 100;
    1e76:	45 83       	std	Z+5, r20	; 0x05
    1e78:	56 83       	std	Z+6, r21	; 0x06
    1e7a:	67 83       	std	Z+7, r22	; 0x07
    1e7c:	70 87       	std	Z+8, r23	; 0x08
	joyStick.TaskFct = &J_tick;
    1e7e:	2a e6       	ldi	r18, 0x6A	; 106
    1e80:	32 e0       	ldi	r19, 0x02	; 2
    1e82:	32 87       	std	Z+10, r19	; 0x0a
    1e84:	21 87       	std	Z+9, r18	; 0x09
	
	rotary.state = R_Begin;
    1e86:	e4 e4       	ldi	r30, 0x44	; 68
    1e88:	f5 e0       	ldi	r31, 0x05	; 5
    1e8a:	10 82       	st	Z, r1
	rotary.period = 1;
    1e8c:	81 83       	std	Z+1, r24	; 0x01
    1e8e:	92 83       	std	Z+2, r25	; 0x02
    1e90:	a3 83       	std	Z+3, r26	; 0x03
    1e92:	b4 83       	std	Z+4, r27	; 0x04
	rotary.elapsedTime = 1;
    1e94:	85 83       	std	Z+5, r24	; 0x05
    1e96:	96 83       	std	Z+6, r25	; 0x06
    1e98:	a7 83       	std	Z+7, r26	; 0x07
    1e9a:	b0 87       	std	Z+8, r27	; 0x08
	rotary.TaskFct = &R_tick;
    1e9c:	26 e6       	ldi	r18, 0x66	; 102
    1e9e:	30 e0       	ldi	r19, 0x00	; 0
    1ea0:	32 87       	std	Z+10, r19	; 0x0a
    1ea2:	21 87       	std	Z+9, r18	; 0x09
	
	asteroidG.state = A_Begin;
    1ea4:	e9 e3       	ldi	r30, 0x39	; 57
    1ea6:	f5 e0       	ldi	r31, 0x05	; 5
    1ea8:	10 82       	st	Z, r1
	asteroidG.period = 1;
    1eaa:	81 83       	std	Z+1, r24	; 0x01
    1eac:	92 83       	std	Z+2, r25	; 0x02
    1eae:	a3 83       	std	Z+3, r26	; 0x03
    1eb0:	b4 83       	std	Z+4, r27	; 0x04
	asteroidG.elapsedTime = 1;
    1eb2:	85 83       	std	Z+5, r24	; 0x05
    1eb4:	96 83       	std	Z+6, r25	; 0x06
    1eb6:	a7 83       	std	Z+7, r26	; 0x07
    1eb8:	b0 87       	std	Z+8, r27	; 0x08
	asteroidG.TaskFct = &A_tick;
    1eba:	23 e1       	ldi	r18, 0x13	; 19
    1ebc:	35 e0       	ldi	r19, 0x05	; 5
    1ebe:	32 87       	std	Z+10, r19	; 0x0a
    1ec0:	21 87       	std	Z+9, r18	; 0x09
	
	hyperDrive.state = H_Begin;
    1ec2:	ee e2       	ldi	r30, 0x2E	; 46
    1ec4:	f5 e0       	ldi	r31, 0x05	; 5
    1ec6:	10 82       	st	Z, r1
	hyperDrive.period = 1;
    1ec8:	81 83       	std	Z+1, r24	; 0x01
    1eca:	92 83       	std	Z+2, r25	; 0x02
    1ecc:	a3 83       	std	Z+3, r26	; 0x03
    1ece:	b4 83       	std	Z+4, r27	; 0x04
	hyperDrive.elapsedTime = 1;
    1ed0:	85 83       	std	Z+5, r24	; 0x05
    1ed2:	96 83       	std	Z+6, r25	; 0x06
    1ed4:	a7 83       	std	Z+7, r26	; 0x07
    1ed6:	b0 87       	std	Z+8, r27	; 0x08
	hyperDrive.TaskFct = &H_tick;
    1ed8:	8c ef       	ldi	r24, 0xFC	; 252
    1eda:	92 e0       	ldi	r25, 0x02	; 2
    1edc:	92 87       	std	Z+10, r25	; 0x0a
    1ede:	81 87       	std	Z+9, r24	; 0x09
	
	ADC_init();
    1ee0:	0e 94 40 02 	call	0x480	; 0x480 <ADC_init>
	LCD_init();
    1ee4:	0e 94 b6 01 	call	0x36c	; 0x36c <LCD_init>
	TimerSet(1);
    1ee8:	61 e0       	ldi	r22, 0x01	; 1
    1eea:	70 e0       	ldi	r23, 0x00	; 0
    1eec:	80 e0       	ldi	r24, 0x00	; 0
    1eee:	90 e0       	ldi	r25, 0x00	; 0
    1ef0:	0e 94 1e 01 	call	0x23c	; 0x23c <TimerSet>
	TimerOn();
    1ef4:	0e 94 2f 01 	call	0x25e	; 0x25e <TimerOn>
	
	unsigned short i = 0;
    while (1)
    {	
		
		if(gameOn == 1)
    1ef8:	80 91 a5 05 	lds	r24, 0x05A5	; 0x8005a5 <gameOn>
    1efc:	81 30       	cpi	r24, 0x01	; 1
    1efe:	09 f0       	breq	.+2      	; 0x1f02 <main+0x144>
    1f00:	59 c0       	rjmp	.+178    	; 0x1fb4 <main+0x1f6>
		{
			//this is the other sm being run
			if (tasks[instruction + 1]->elapsedTime == tasks[instruction + 1]->period)
    1f02:	e0 91 c4 05 	lds	r30, 0x05C4	; 0x8005c4 <instruction>
    1f06:	f0 e0       	ldi	r31, 0x00	; 0
    1f08:	31 96       	adiw	r30, 0x01	; 1
    1f0a:	ee 0f       	add	r30, r30
    1f0c:	ff 1f       	adc	r31, r31
    1f0e:	81 e0       	ldi	r24, 0x01	; 1
    1f10:	90 e0       	ldi	r25, 0x00	; 0
    1f12:	8c 0f       	add	r24, r28
    1f14:	9d 1f       	adc	r25, r29
    1f16:	e8 0f       	add	r30, r24
    1f18:	f9 1f       	adc	r31, r25
    1f1a:	00 81       	ld	r16, Z
    1f1c:	11 81       	ldd	r17, Z+1	; 0x01
    1f1e:	d8 01       	movw	r26, r16
    1f20:	15 96       	adiw	r26, 0x05	; 5
    1f22:	4d 91       	ld	r20, X+
    1f24:	5d 91       	ld	r21, X+
    1f26:	6d 91       	ld	r22, X+
    1f28:	7c 91       	ld	r23, X
    1f2a:	18 97       	sbiw	r26, 0x08	; 8
    1f2c:	11 96       	adiw	r26, 0x01	; 1
    1f2e:	8d 91       	ld	r24, X+
    1f30:	9d 91       	ld	r25, X+
    1f32:	0d 90       	ld	r0, X+
    1f34:	bc 91       	ld	r27, X
    1f36:	a0 2d       	mov	r26, r0
    1f38:	48 17       	cp	r20, r24
    1f3a:	59 07       	cpc	r21, r25
    1f3c:	6a 07       	cpc	r22, r26
    1f3e:	7b 07       	cpc	r23, r27
    1f40:	f1 f4       	brne	.+60     	; 0x1f7e <main+0x1c0>
			{
				tasks[instruction + 1]->state = tasks[instruction + 1]->TaskFct(tasks[instruction + 1]->state);
    1f42:	f8 01       	movw	r30, r16
    1f44:	80 81       	ld	r24, Z
    1f46:	01 84       	ldd	r0, Z+9	; 0x09
    1f48:	f2 85       	ldd	r31, Z+10	; 0x0a
    1f4a:	e0 2d       	mov	r30, r0
    1f4c:	08 2e       	mov	r0, r24
    1f4e:	00 0c       	add	r0, r0
    1f50:	99 0b       	sbc	r25, r25
    1f52:	09 95       	icall
    1f54:	d8 01       	movw	r26, r16
    1f56:	8c 93       	st	X, r24
				tasks[instruction + 1]->elapsedTime = 0;
    1f58:	e0 91 c4 05 	lds	r30, 0x05C4	; 0x8005c4 <instruction>
    1f5c:	f0 e0       	ldi	r31, 0x00	; 0
    1f5e:	31 96       	adiw	r30, 0x01	; 1
    1f60:	ee 0f       	add	r30, r30
    1f62:	ff 1f       	adc	r31, r31
    1f64:	81 e0       	ldi	r24, 0x01	; 1
    1f66:	90 e0       	ldi	r25, 0x00	; 0
    1f68:	8c 0f       	add	r24, r28
    1f6a:	9d 1f       	adc	r25, r29
    1f6c:	e8 0f       	add	r30, r24
    1f6e:	f9 1f       	adc	r31, r25
    1f70:	01 90       	ld	r0, Z+
    1f72:	f0 81       	ld	r31, Z
    1f74:	e0 2d       	mov	r30, r0
    1f76:	15 82       	std	Z+5, r1	; 0x05
    1f78:	16 82       	std	Z+6, r1	; 0x06
    1f7a:	17 82       	std	Z+7, r1	; 0x07
    1f7c:	10 86       	std	Z+8, r1	; 0x08
			}
			tasks[instruction + 1]->elapsedTime += 1;
    1f7e:	e0 91 c4 05 	lds	r30, 0x05C4	; 0x8005c4 <instruction>
    1f82:	f0 e0       	ldi	r31, 0x00	; 0
    1f84:	31 96       	adiw	r30, 0x01	; 1
    1f86:	ee 0f       	add	r30, r30
    1f88:	ff 1f       	adc	r31, r31
    1f8a:	a1 e0       	ldi	r26, 0x01	; 1
    1f8c:	b0 e0       	ldi	r27, 0x00	; 0
    1f8e:	ac 0f       	add	r26, r28
    1f90:	bd 1f       	adc	r27, r29
    1f92:	ea 0f       	add	r30, r26
    1f94:	fb 1f       	adc	r31, r27
    1f96:	01 90       	ld	r0, Z+
    1f98:	f0 81       	ld	r31, Z
    1f9a:	e0 2d       	mov	r30, r0
    1f9c:	85 81       	ldd	r24, Z+5	; 0x05
    1f9e:	96 81       	ldd	r25, Z+6	; 0x06
    1fa0:	a7 81       	ldd	r26, Z+7	; 0x07
    1fa2:	b0 85       	ldd	r27, Z+8	; 0x08
    1fa4:	01 96       	adiw	r24, 0x01	; 1
    1fa6:	a1 1d       	adc	r26, r1
    1fa8:	b1 1d       	adc	r27, r1
    1faa:	85 83       	std	Z+5, r24	; 0x05
    1fac:	96 83       	std	Z+6, r25	; 0x06
    1fae:	a7 83       	std	Z+7, r26	; 0x07
    1fb0:	b0 87       	std	Z+8, r27	; 0x08
    1fb2:	09 c0       	rjmp	.+18     	; 0x1fc6 <main+0x208>
		}
		else
		{
			seed++;
    1fb4:	80 91 a8 05 	lds	r24, 0x05A8	; 0x8005a8 <seed>
    1fb8:	90 91 a9 05 	lds	r25, 0x05A9	; 0x8005a9 <seed+0x1>
    1fbc:	01 96       	adiw	r24, 0x01	; 1
    1fbe:	90 93 a9 05 	sts	0x05A9, r25	; 0x8005a9 <seed+0x1>
    1fc2:	80 93 a8 05 	sts	0x05A8, r24	; 0x8005a8 <seed>
		}
		
		if (tasks[0]->elapsedTime == tasks[0]->period)
    1fc6:	09 81       	ldd	r16, Y+1	; 0x01
    1fc8:	1a 81       	ldd	r17, Y+2	; 0x02
    1fca:	f8 01       	movw	r30, r16
    1fcc:	45 81       	ldd	r20, Z+5	; 0x05
    1fce:	56 81       	ldd	r21, Z+6	; 0x06
    1fd0:	67 81       	ldd	r22, Z+7	; 0x07
    1fd2:	70 85       	ldd	r23, Z+8	; 0x08
    1fd4:	81 81       	ldd	r24, Z+1	; 0x01
    1fd6:	92 81       	ldd	r25, Z+2	; 0x02
    1fd8:	a3 81       	ldd	r26, Z+3	; 0x03
    1fda:	b4 81       	ldd	r27, Z+4	; 0x04
    1fdc:	48 17       	cp	r20, r24
    1fde:	59 07       	cpc	r21, r25
    1fe0:	6a 07       	cpc	r22, r26
    1fe2:	7b 07       	cpc	r23, r27
    1fe4:	79 f4       	brne	.+30     	; 0x2004 <main+0x246>
		{
			tasks[0]->state = tasks[0]->TaskFct(tasks[0]->state);
    1fe6:	80 81       	ld	r24, Z
    1fe8:	01 84       	ldd	r0, Z+9	; 0x09
    1fea:	f2 85       	ldd	r31, Z+10	; 0x0a
    1fec:	e0 2d       	mov	r30, r0
    1fee:	08 2e       	mov	r0, r24
    1ff0:	00 0c       	add	r0, r0
    1ff2:	99 0b       	sbc	r25, r25
    1ff4:	09 95       	icall
    1ff6:	d8 01       	movw	r26, r16
    1ff8:	8c 93       	st	X, r24
			tasks[0]->elapsedTime = 0;
    1ffa:	f8 01       	movw	r30, r16
    1ffc:	15 82       	std	Z+5, r1	; 0x05
    1ffe:	16 82       	std	Z+6, r1	; 0x06
    2000:	17 82       	std	Z+7, r1	; 0x07
    2002:	10 86       	std	Z+8, r1	; 0x08
		}
		tasks[0]->elapsedTime += 1;
    2004:	f8 01       	movw	r30, r16
    2006:	85 81       	ldd	r24, Z+5	; 0x05
    2008:	96 81       	ldd	r25, Z+6	; 0x06
    200a:	a7 81       	ldd	r26, Z+7	; 0x07
    200c:	b0 85       	ldd	r27, Z+8	; 0x08
    200e:	01 96       	adiw	r24, 0x01	; 1
    2010:	a1 1d       	adc	r26, r1
    2012:	b1 1d       	adc	r27, r1
    2014:	85 83       	std	Z+5, r24	; 0x05
    2016:	96 83       	std	Z+6, r25	; 0x06
    2018:	a7 83       	std	Z+7, r26	; 0x07
    201a:	b0 87       	std	Z+8, r27	; 0x08
		
		if(gameOn == 1)
    201c:	80 91 a5 05 	lds	r24, 0x05A5	; 0x8005a5 <gameOn>
    2020:	81 30       	cpi	r24, 0x01	; 1
    2022:	41 f4       	brne	.+16     	; 0x2034 <main+0x276>
		{
			LCD_Cursor(30);
    2024:	8e e1       	ldi	r24, 0x1E	; 30
    2026:	0e 94 ae 01 	call	0x35c	; 0x35c <LCD_Cursor>
			LCD_WriteData(numInstruc + '0');
    202a:	80 91 22 01 	lds	r24, 0x0122	; 0x800122 <numInstruc>
    202e:	80 5d       	subi	r24, 0xD0	; 208
    2030:	0e 94 c5 01 	call	0x38a	; 0x38a <LCD_WriteData>
		}
		
		while(!TimerFlag);
    2034:	80 91 b5 05 	lds	r24, 0x05B5	; 0x8005b5 <TimerFlag>
    2038:	88 23       	and	r24, r24
    203a:	e1 f3       	breq	.-8      	; 0x2034 <main+0x276>
		TimerFlag = 0;
    203c:	10 92 b5 05 	sts	0x05B5, r1	; 0x8005b5 <TimerFlag>
    }
    2040:	5b cf       	rjmp	.-330    	; 0x1ef8 <main+0x13a>

00002042 <__udivmodhi4>:
    2042:	aa 1b       	sub	r26, r26
    2044:	bb 1b       	sub	r27, r27
    2046:	51 e1       	ldi	r21, 0x11	; 17
    2048:	07 c0       	rjmp	.+14     	; 0x2058 <__udivmodhi4_ep>

0000204a <__udivmodhi4_loop>:
    204a:	aa 1f       	adc	r26, r26
    204c:	bb 1f       	adc	r27, r27
    204e:	a6 17       	cp	r26, r22
    2050:	b7 07       	cpc	r27, r23
    2052:	10 f0       	brcs	.+4      	; 0x2058 <__udivmodhi4_ep>
    2054:	a6 1b       	sub	r26, r22
    2056:	b7 0b       	sbc	r27, r23

00002058 <__udivmodhi4_ep>:
    2058:	88 1f       	adc	r24, r24
    205a:	99 1f       	adc	r25, r25
    205c:	5a 95       	dec	r21
    205e:	a9 f7       	brne	.-22     	; 0x204a <__udivmodhi4_loop>
    2060:	80 95       	com	r24
    2062:	90 95       	com	r25
    2064:	bc 01       	movw	r22, r24
    2066:	cd 01       	movw	r24, r26
    2068:	08 95       	ret

0000206a <__divmodhi4>:
    206a:	97 fb       	bst	r25, 7
    206c:	07 2e       	mov	r0, r23
    206e:	16 f4       	brtc	.+4      	; 0x2074 <__divmodhi4+0xa>
    2070:	00 94       	com	r0
    2072:	06 d0       	rcall	.+12     	; 0x2080 <__divmodhi4_neg1>
    2074:	77 fd       	sbrc	r23, 7
    2076:	08 d0       	rcall	.+16     	; 0x2088 <__divmodhi4_neg2>
    2078:	e4 df       	rcall	.-56     	; 0x2042 <__udivmodhi4>
    207a:	07 fc       	sbrc	r0, 7
    207c:	05 d0       	rcall	.+10     	; 0x2088 <__divmodhi4_neg2>
    207e:	3e f4       	brtc	.+14     	; 0x208e <__divmodhi4_exit>

00002080 <__divmodhi4_neg1>:
    2080:	90 95       	com	r25
    2082:	81 95       	neg	r24
    2084:	9f 4f       	sbci	r25, 0xFF	; 255
    2086:	08 95       	ret

00002088 <__divmodhi4_neg2>:
    2088:	70 95       	com	r23
    208a:	61 95       	neg	r22
    208c:	7f 4f       	sbci	r23, 0xFF	; 255

0000208e <__divmodhi4_exit>:
    208e:	08 95       	ret

00002090 <do_rand>:
    2090:	8f 92       	push	r8
    2092:	9f 92       	push	r9
    2094:	af 92       	push	r10
    2096:	bf 92       	push	r11
    2098:	cf 92       	push	r12
    209a:	df 92       	push	r13
    209c:	ef 92       	push	r14
    209e:	ff 92       	push	r15
    20a0:	cf 93       	push	r28
    20a2:	df 93       	push	r29
    20a4:	ec 01       	movw	r28, r24
    20a6:	68 81       	ld	r22, Y
    20a8:	79 81       	ldd	r23, Y+1	; 0x01
    20aa:	8a 81       	ldd	r24, Y+2	; 0x02
    20ac:	9b 81       	ldd	r25, Y+3	; 0x03
    20ae:	61 15       	cp	r22, r1
    20b0:	71 05       	cpc	r23, r1
    20b2:	81 05       	cpc	r24, r1
    20b4:	91 05       	cpc	r25, r1
    20b6:	21 f4       	brne	.+8      	; 0x20c0 <do_rand+0x30>
    20b8:	64 e2       	ldi	r22, 0x24	; 36
    20ba:	79 ed       	ldi	r23, 0xD9	; 217
    20bc:	8b e5       	ldi	r24, 0x5B	; 91
    20be:	97 e0       	ldi	r25, 0x07	; 7
    20c0:	2d e1       	ldi	r18, 0x1D	; 29
    20c2:	33 ef       	ldi	r19, 0xF3	; 243
    20c4:	41 e0       	ldi	r20, 0x01	; 1
    20c6:	50 e0       	ldi	r21, 0x00	; 0
    20c8:	38 d0       	rcall	.+112    	; 0x213a <__divmodsi4>
    20ca:	49 01       	movw	r8, r18
    20cc:	5a 01       	movw	r10, r20
    20ce:	9b 01       	movw	r18, r22
    20d0:	ac 01       	movw	r20, r24
    20d2:	a7 ea       	ldi	r26, 0xA7	; 167
    20d4:	b1 e4       	ldi	r27, 0x41	; 65
    20d6:	4d d0       	rcall	.+154    	; 0x2172 <__muluhisi3>
    20d8:	6b 01       	movw	r12, r22
    20da:	7c 01       	movw	r14, r24
    20dc:	ac ee       	ldi	r26, 0xEC	; 236
    20de:	b4 ef       	ldi	r27, 0xF4	; 244
    20e0:	a5 01       	movw	r20, r10
    20e2:	94 01       	movw	r18, r8
    20e4:	52 d0       	rcall	.+164    	; 0x218a <__mulohisi3>
    20e6:	dc 01       	movw	r26, r24
    20e8:	cb 01       	movw	r24, r22
    20ea:	8c 0d       	add	r24, r12
    20ec:	9d 1d       	adc	r25, r13
    20ee:	ae 1d       	adc	r26, r14
    20f0:	bf 1d       	adc	r27, r15
    20f2:	b7 ff       	sbrs	r27, 7
    20f4:	03 c0       	rjmp	.+6      	; 0x20fc <do_rand+0x6c>
    20f6:	01 97       	sbiw	r24, 0x01	; 1
    20f8:	a1 09       	sbc	r26, r1
    20fa:	b0 48       	sbci	r27, 0x80	; 128
    20fc:	88 83       	st	Y, r24
    20fe:	99 83       	std	Y+1, r25	; 0x01
    2100:	aa 83       	std	Y+2, r26	; 0x02
    2102:	bb 83       	std	Y+3, r27	; 0x03
    2104:	9f 77       	andi	r25, 0x7F	; 127
    2106:	df 91       	pop	r29
    2108:	cf 91       	pop	r28
    210a:	ff 90       	pop	r15
    210c:	ef 90       	pop	r14
    210e:	df 90       	pop	r13
    2110:	cf 90       	pop	r12
    2112:	bf 90       	pop	r11
    2114:	af 90       	pop	r10
    2116:	9f 90       	pop	r9
    2118:	8f 90       	pop	r8
    211a:	08 95       	ret

0000211c <rand_r>:
    211c:	b9 cf       	rjmp	.-142    	; 0x2090 <do_rand>

0000211e <rand>:
    211e:	80 e0       	ldi	r24, 0x00	; 0
    2120:	91 e0       	ldi	r25, 0x01	; 1
    2122:	b6 cf       	rjmp	.-148    	; 0x2090 <do_rand>

00002124 <srand>:
    2124:	a0 e0       	ldi	r26, 0x00	; 0
    2126:	b0 e0       	ldi	r27, 0x00	; 0
    2128:	80 93 00 01 	sts	0x0100, r24	; 0x800100 <__data_start>
    212c:	90 93 01 01 	sts	0x0101, r25	; 0x800101 <__data_start+0x1>
    2130:	a0 93 02 01 	sts	0x0102, r26	; 0x800102 <__data_start+0x2>
    2134:	b0 93 03 01 	sts	0x0103, r27	; 0x800103 <__data_start+0x3>
    2138:	08 95       	ret

0000213a <__divmodsi4>:
    213a:	05 2e       	mov	r0, r21
    213c:	97 fb       	bst	r25, 7
    213e:	16 f4       	brtc	.+4      	; 0x2144 <__divmodsi4+0xa>
    2140:	00 94       	com	r0
    2142:	0f d0       	rcall	.+30     	; 0x2162 <__negsi2>
    2144:	57 fd       	sbrc	r21, 7
    2146:	05 d0       	rcall	.+10     	; 0x2152 <__divmodsi4_neg2>
    2148:	24 d0       	rcall	.+72     	; 0x2192 <__udivmodsi4>
    214a:	07 fc       	sbrc	r0, 7
    214c:	02 d0       	rcall	.+4      	; 0x2152 <__divmodsi4_neg2>
    214e:	46 f4       	brtc	.+16     	; 0x2160 <__divmodsi4_exit>
    2150:	08 c0       	rjmp	.+16     	; 0x2162 <__negsi2>

00002152 <__divmodsi4_neg2>:
    2152:	50 95       	com	r21
    2154:	40 95       	com	r20
    2156:	30 95       	com	r19
    2158:	21 95       	neg	r18
    215a:	3f 4f       	sbci	r19, 0xFF	; 255
    215c:	4f 4f       	sbci	r20, 0xFF	; 255
    215e:	5f 4f       	sbci	r21, 0xFF	; 255

00002160 <__divmodsi4_exit>:
    2160:	08 95       	ret

00002162 <__negsi2>:
    2162:	90 95       	com	r25
    2164:	80 95       	com	r24
    2166:	70 95       	com	r23
    2168:	61 95       	neg	r22
    216a:	7f 4f       	sbci	r23, 0xFF	; 255
    216c:	8f 4f       	sbci	r24, 0xFF	; 255
    216e:	9f 4f       	sbci	r25, 0xFF	; 255
    2170:	08 95       	ret

00002172 <__muluhisi3>:
    2172:	31 d0       	rcall	.+98     	; 0x21d6 <__umulhisi3>
    2174:	a5 9f       	mul	r26, r21
    2176:	90 0d       	add	r25, r0
    2178:	b4 9f       	mul	r27, r20
    217a:	90 0d       	add	r25, r0
    217c:	a4 9f       	mul	r26, r20
    217e:	80 0d       	add	r24, r0
    2180:	91 1d       	adc	r25, r1
    2182:	11 24       	eor	r1, r1
    2184:	08 95       	ret

00002186 <__mulshisi3>:
    2186:	b7 ff       	sbrs	r27, 7
    2188:	f4 cf       	rjmp	.-24     	; 0x2172 <__muluhisi3>

0000218a <__mulohisi3>:
    218a:	f3 df       	rcall	.-26     	; 0x2172 <__muluhisi3>
    218c:	82 1b       	sub	r24, r18
    218e:	93 0b       	sbc	r25, r19
    2190:	08 95       	ret

00002192 <__udivmodsi4>:
    2192:	a1 e2       	ldi	r26, 0x21	; 33
    2194:	1a 2e       	mov	r1, r26
    2196:	aa 1b       	sub	r26, r26
    2198:	bb 1b       	sub	r27, r27
    219a:	fd 01       	movw	r30, r26
    219c:	0d c0       	rjmp	.+26     	; 0x21b8 <__udivmodsi4_ep>

0000219e <__udivmodsi4_loop>:
    219e:	aa 1f       	adc	r26, r26
    21a0:	bb 1f       	adc	r27, r27
    21a2:	ee 1f       	adc	r30, r30
    21a4:	ff 1f       	adc	r31, r31
    21a6:	a2 17       	cp	r26, r18
    21a8:	b3 07       	cpc	r27, r19
    21aa:	e4 07       	cpc	r30, r20
    21ac:	f5 07       	cpc	r31, r21
    21ae:	20 f0       	brcs	.+8      	; 0x21b8 <__udivmodsi4_ep>
    21b0:	a2 1b       	sub	r26, r18
    21b2:	b3 0b       	sbc	r27, r19
    21b4:	e4 0b       	sbc	r30, r20
    21b6:	f5 0b       	sbc	r31, r21

000021b8 <__udivmodsi4_ep>:
    21b8:	66 1f       	adc	r22, r22
    21ba:	77 1f       	adc	r23, r23
    21bc:	88 1f       	adc	r24, r24
    21be:	99 1f       	adc	r25, r25
    21c0:	1a 94       	dec	r1
    21c2:	69 f7       	brne	.-38     	; 0x219e <__udivmodsi4_loop>
    21c4:	60 95       	com	r22
    21c6:	70 95       	com	r23
    21c8:	80 95       	com	r24
    21ca:	90 95       	com	r25
    21cc:	9b 01       	movw	r18, r22
    21ce:	ac 01       	movw	r20, r24
    21d0:	bd 01       	movw	r22, r26
    21d2:	cf 01       	movw	r24, r30
    21d4:	08 95       	ret

000021d6 <__umulhisi3>:
    21d6:	a2 9f       	mul	r26, r18
    21d8:	b0 01       	movw	r22, r0
    21da:	b3 9f       	mul	r27, r19
    21dc:	c0 01       	movw	r24, r0
    21de:	a3 9f       	mul	r26, r19
    21e0:	70 0d       	add	r23, r0
    21e2:	81 1d       	adc	r24, r1
    21e4:	11 24       	eor	r1, r1
    21e6:	91 1d       	adc	r25, r1
    21e8:	b2 9f       	mul	r27, r18
    21ea:	70 0d       	add	r23, r0
    21ec:	81 1d       	adc	r24, r1
    21ee:	11 24       	eor	r1, r1
    21f0:	91 1d       	adc	r25, r1
    21f2:	08 95       	ret

000021f4 <_exit>:
    21f4:	f8 94       	cli

000021f6 <__stop_program>:
    21f6:	ff cf       	rjmp	.-2      	; 0x21f6 <__stop_program>
